(lp0
(lp1
(iRoom.Tile.Wall_tile
Wall
p2
(dp3
S'level'
p4
I1
sS'color'
p5
(I255
I0
I0
tp6
sS'x'
p7
I0
sS'y'
p8
I0
sS'seen'
p9
I00
sS'type'
p10
I0
sS'transparent'
p11
I00
sS'blocked'
p12
I01
sba(iRoom.Tile.Wall_tile
Wall
p13
(dp14
g4
I1
sg5
g6
sg7
I0
sg8
I1
sg9
I00
sg10
I0
sg11
I00
sg12
I01
sba(iRoom.Tile.Wall_tile
Wall
p15
(dp16
g4
I1
sg5
g6
sg7
I0
sg8
I2
sg9
I00
sg10
I0
sg11
I00
sg12
I01
sba(iRoom.Tile.Wall_tile
Wall
p17
(dp18
g4
I1
sg5
g6
sg7
I0
sg8
I3
sg9
I00
sg10
I0
sg11
I00
sg12
I01
sba(iRoom.Tile.Wall_tile
Wall
p19
(dp20
g4
I1
sg5
g6
sg7
I0
sg8
I4
sg9
I00
sg10
I0
sg11
I00
sg12
I01
sba(iRoom.Tile.Wall_tile
Wall
p21
(dp22
g4
I1
sg5
g6
sg7
I0
sg8
I5
sg9
I00
sg10
I0
sg11
I00
sg12
I01
sba(iRoom.Tile.Wall_tile
Wall
p23
(dp24
g4
I1
sg5
g6
sg7
I0
sg8
I6
sg9
I00
sg10
I0
sg11
I00
sg12
I01
sba(iRoom.Tile.Wall_tile
Wall
p25
(dp26
g4
I1
sg5
g6
sg7
I0
sg8
I7
sg9
I00
sg10
I0
sg11
I00
sg12
I01
sba(iRoom.Tile.Wall_tile
Wall
p27
(dp28
g4
I1
sg5
g6
sg7
I0
sg8
I8
sg9
I00
sg10
I0
sg11
I00
sg12
I01
sba(iRoom.Tile.Wall_tile
Wall
p29
(dp30
g4
I1
sg5
g6
sg7
I0
sg8
I9
sg9
I00
sg10
I0
sg11
I00
sg12
I01
sba(iRoom.Tile.Wall_tile
Wall
p31
(dp32
g4
I1
sg5
g6
sg7
I0
sg8
I10
sg9
I00
sg10
I0
sg11
I00
sg12
I01
sba(iRoom.Tile.Wall_tile
Wall
p33
(dp34
g4
I1
sg5
g6
sg7
I0
sg8
I11
sg9
I00
sg10
I0
sg11
I00
sg12
I01
sba(iRoom.Tile.Wall_tile
Wall
p35
(dp36
g4
I1
sg5
g6
sg7
I0
sg8
I12
sg9
I00
sg10
I0
sg11
I00
sg12
I01
sba(iRoom.Tile.Wall_tile
Wall
p37
(dp38
g4
I1
sg5
g6
sg7
I0
sg8
I13
sg9
I00
sg10
I0
sg11
I00
sg12
I01
sba(iRoom.Tile.Wall_tile
Wall
p39
(dp40
g4
I1
sg5
g6
sg7
I0
sg8
I14
sg9
I00
sg10
I0
sg11
I00
sg12
I01
sba(iRoom.Tile.Wall_tile
Wall
p41
(dp42
g4
I1
sg5
g6
sg7
I0
sg8
I15
sg9
I00
sg10
I0
sg11
I00
sg12
I01
sba(iRoom.Tile.Wall_tile
Wall
p43
(dp44
g4
I1
sg5
g6
sg7
I0
sg8
I16
sg9
I00
sg10
I0
sg11
I00
sg12
I01
sba(iRoom.Tile.Wall_tile
Wall
p45
(dp46
g4
I1
sg5
g6
sg7
I0
sg8
I17
sg9
I00
sg10
I0
sg11
I00
sg12
I01
sba(iRoom.Tile.Wall_tile
Wall
p47
(dp48
g4
I1
sg5
g6
sg7
I0
sg8
I18
sg9
I00
sg10
I0
sg11
I00
sg12
I01
sba(iRoom.Tile.Wall_tile
Wall
p49
(dp50
g4
I1
sg5
g6
sg7
I0
sg8
I19
sg9
I00
sg10
I0
sg11
I00
sg12
I01
sba(iRoom.Tile.Wall_tile
Wall
p51
(dp52
g4
I1
sg5
g6
sg7
I0
sg8
I20
sg9
I00
sg10
I0
sg11
I00
sg12
I01
sba(iRoom.Tile.Wall_tile
Wall
p53
(dp54
g4
I1
sg5
g6
sg7
I0
sg8
I21
sg9
I00
sg10
I0
sg11
I00
sg12
I01
sba(iRoom.Tile.Wall_tile
Wall
p55
(dp56
g4
I1
sg5
g6
sg7
I0
sg8
I22
sg9
I00
sg10
I0
sg11
I00
sg12
I01
sba(iRoom.Tile.Wall_tile
Wall
p57
(dp58
g4
I1
sg5
g6
sg7
I0
sg8
I23
sg9
I00
sg10
I0
sg11
I00
sg12
I01
sbaa(lp59
(iRoom.Tile.Wall_tile
Wall
p60
(dp61
g4
I1
sg5
g6
sg7
I1
sg8
I0
sg9
I00
sg10
I0
sg11
I00
sg12
I01
sba(iRoom.Tile.Tile
Tile
p62
(dp63
g4
I1
sg5
(I237
I205
I175
tp64
sg7
I1
sg8
I1
sg9
I00
sg10
I0
sg11
I01
sg12
I00
sba(iRoom.Tile.Tile
Tile
p65
(dp66
g4
I1
sg5
(I233
I204
I177
tp67
sg7
I1
sg8
I2
sg9
I00
sg10
I0
sg11
I01
sg12
I00
sba(iRoom.Tile.Tile
Tile
p68
(dp69
g4
I1
sg5
(I233
I202
I173
tp70
sg7
I1
sg8
I3
sg9
I00
sg10
I0
sg11
I01
sg12
I00
sba(iRoom.Tile.Tile
Tile
p71
(dp72
g4
I1
sg5
(I233
I196
I175
tp73
sg7
I1
sg8
I4
sg9
I00
sg10
I0
sg11
I01
sg12
I00
sba(iRoom.Tile.Tile
Tile
p74
(dp75
g4
I1
sg5
(I234
I198
I178
tp76
sg7
I1
sg8
I5
sg9
I00
sg10
I0
sg11
I01
sg12
I00
sba(iRoom.Tile.Tile
Tile
p77
(dp78
g4
I1
sg5
(I234
I202
I172
tp79
sg7
I1
sg8
I6
sg9
I00
sg10
I0
sg11
I01
sg12
I00
sba(iRoom.Tile.Tile
Tile
p80
(dp81
g4
I1
sg5
(I235
I204
I171
tp82
sg7
I1
sg8
I7
sg9
I00
sg10
I0
sg11
I01
sg12
I00
sba(iRoom.Tile.Tile
Tile
p83
(dp84
g4
I1
sg5
(I241
I201
I172
tp85
sg7
I1
sg8
I8
sg9
I00
sg10
I0
sg11
I01
sg12
I00
sba(iRoom.Tile.Tile
Tile
p86
(dp87
g4
I1
sg5
(I238
I198
I172
tp88
sg7
I1
sg8
I9
sg9
I00
sg10
I0
sg11
I01
sg12
I00
sba(iRoom.Tile.Tile
Tile
p89
(dp90
g4
I1
sg5
(I232
I205
I179
tp91
sg7
I1
sg8
I10
sg9
I00
sg10
I0
sg11
I01
sg12
I00
sba(iRoom.Tile.Tile
Tile
p92
(dp93
g4
I1
sg5
(I232
I200
I174
tp94
sg7
I1
sg8
I11
sg9
I00
sg10
I0
sg11
I01
sg12
I00
sba(iRoom.Tile.Tile
Tile
p95
(dp96
g4
I1
sg5
(I239
I204
I170
tp97
sg7
I1
sg8
I12
sg9
I00
sg10
I0
sg11
I01
sg12
I00
sba(iRoom.Tile.Wall_tile
Wall
p98
(dp99
g4
I1
sg5
g6
sg7
I1
sg8
I13
sg9
I00
sg10
I0
sg11
I00
sg12
I01
sba(iRoom.Tile.Wall_tile
Wall
p100
(dp101
g4
I1
sg5
g6
sg7
I1
sg8
I14
sg9
I00
sg10
I0
sg11
I00
sg12
I01
sba(iRoom.Tile.Wall_tile
Wall
p102
(dp103
g4
I1
sg5
g6
sg7
I1
sg8
I15
sg9
I00
sg10
I0
sg11
I00
sg12
I01
sba(iRoom.Tile.Wall_tile
Wall
p104
(dp105
g4
I1
sg5
g6
sg7
I1
sg8
I16
sg9
I00
sg10
I0
sg11
I00
sg12
I01
sba(iRoom.Tile.Tile
Tile
p106
(dp107
g4
I1
sg5
(I232
I198
I179
tp108
sg7
I1
sg8
I17
sg9
I00
sg10
I0
sg11
I01
sg12
I00
sba(iRoom.Tile.Tile
Tile
p109
(dp110
g4
I1
sg5
(I232
I196
I170
tp111
sg7
I1
sg8
I18
sg9
I00
sg10
I0
sg11
I01
sg12
I00
sba(iRoom.Tile.Wall_tile
Wall
p112
(dp113
g4
I1
sg5
g6
sg7
I1
sg8
I19
sg9
I00
sg10
I0
sg11
I00
sg12
I01
sba(iRoom.Tile.Tile
Tile
p114
(dp115
g4
I1
sg5
(I233
I202
I179
tp116
sg7
I1
sg8
I20
sg9
I00
sg10
I0
sg11
I01
sg12
I00
sba(iRoom.Tile.Tile
Tile
p117
(dp118
g4
I1
sg5
(I238
I200
I179
tp119
sg7
I1
sg8
I21
sg9
I00
sg10
I0
sg11
I01
sg12
I00
sba(iRoom.Tile.Wall_tile
Wall
p120
(dp121
g4
I1
sg5
g6
sg7
I1
sg8
I22
sg9
I00
sg10
I0
sg11
I00
sg12
I01
sba(iRoom.Tile.Wall_tile
Wall
p122
(dp123
g4
I1
sg5
g6
sg7
I1
sg8
I23
sg9
I00
sg10
I0
sg11
I00
sg12
I01
sbaa(lp124
(iRoom.Tile.Wall_tile
Wall
p125
(dp126
g4
I1
sg5
g6
sg7
I2
sg8
I0
sg9
I00
sg10
I0
sg11
I00
sg12
I01
sba(iRoom.Tile.Wall_tile
Wall
p127
(dp128
g4
I1
sg5
g6
sg7
I2
sg8
I1
sg9
I00
sg10
I0
sg11
I00
sg12
I01
sba(iRoom.Tile.Tile
Tile
p129
(dp130
g4
I1
sg5
(I232
I205
I179
tp131
sg7
I2
sg8
I2
sg9
I00
sg10
I0
sg11
I01
sg12
I00
sba(iRoom.Tile.Tile
Tile
p132
(dp133
g4
I1
sg5
(I238
I198
I176
tp134
sg7
I2
sg8
I3
sg9
I00
sg10
I0
sg11
I01
sg12
I00
sba(iRoom.Tile.Tile
Tile
p135
(dp136
g4
I1
sg5
(I235
I203
I172
tp137
sg7
I2
sg8
I4
sg9
I00
sg10
I0
sg11
I01
sg12
I00
sba(iRoom.Tile.Tile
Tile
p138
(dp139
g4
I1
sg5
(I238
I202
I176
tp140
sg7
I2
sg8
I5
sg9
I00
sg10
I0
sg11
I01
sg12
I00
sba(iRoom.Tile.Tile
Tile
p141
(dp142
g4
I1
sg5
(I235
I203
I174
tp143
sg7
I2
sg8
I6
sg9
I00
sg10
I0
sg11
I01
sg12
I00
sba(iRoom.Tile.Tile
Tile
p144
(dp145
g4
I1
sg5
(I241
I203
I174
tp146
sg7
I2
sg8
I7
sg9
I00
sg10
I0
sg11
I01
sg12
I00
sba(iRoom.Tile.Tile
Tile
p147
(dp148
g4
I1
sg5
(I238
I203
I172
tp149
sg7
I2
sg8
I8
sg9
I00
sg10
I0
sg11
I01
sg12
I00
sba(iRoom.Tile.Tile
Tile
p150
(dp151
g4
I1
sg5
(I241
I202
I171
tp152
sg7
I2
sg8
I9
sg9
I00
sg10
I0
sg11
I01
sg12
I00
sba(iRoom.Tile.Tile
Tile
p153
(dp154
g4
I1
sg5
(I235
I200
I178
tp155
sg7
I2
sg8
I10
sg9
I00
sg10
I0
sg11
I01
sg12
I00
sba(iRoom.Tile.Tile
Tile
p156
(dp157
g4
I1
sg5
(I240
I198
I176
tp158
sg7
I2
sg8
I11
sg9
I00
sg10
I0
sg11
I01
sg12
I00
sba(iRoom.Tile.Wall_tile
Wall
p159
(dp160
g4
I1
sg5
g6
sg7
I2
sg8
I12
sg9
I00
sg10
I0
sg11
I00
sg12
I01
sba(iRoom.Tile.Tile
Tile
p161
(dp162
g4
I1
sg5
(I233
I196
I175
tp163
sg7
I2
sg8
I13
sg9
I00
sg10
I0
sg11
I01
sg12
I00
sba(iRoom.Tile.Tile
Tile
p164
(dp165
g4
I1
sg5
(I239
I201
I179
tp166
sg7
I2
sg8
I14
sg9
I00
sg10
I0
sg11
I01
sg12
I00
sba(iRoom.Tile.Tile
Tile
p167
(dp168
g4
I1
sg5
(I235
I199
I173
tp169
sg7
I2
sg8
I15
sg9
I00
sg10
I0
sg11
I01
sg12
I00
sba(iRoom.Tile.Tile
Tile
p170
(dp171
g4
I1
sg5
(I236
I196
I170
tp172
sg7
I2
sg8
I16
sg9
I00
sg10
I0
sg11
I01
sg12
I00
sba(iRoom.Tile.Wall_tile
Wall
p173
(dp174
g4
I1
sg5
g6
sg7
I2
sg8
I17
sg9
I00
sg10
I0
sg11
I00
sg12
I01
sba(iRoom.Tile.Wall_tile
Wall
p175
(dp176
g4
I1
sg5
g6
sg7
I2
sg8
I18
sg9
I00
sg10
I0
sg11
I00
sg12
I01
sba(iRoom.Tile.Tile
Tile
p177
(dp178
g4
I1
sg5
(I235
I199
I179
tp179
sg7
I2
sg8
I19
sg9
I00
sg10
I0
sg11
I01
sg12
I00
sba(iRoom.Tile.Tile
Tile
p180
(dp181
g4
I1
sg5
(I235
I201
I175
tp182
sg7
I2
sg8
I20
sg9
I00
sg10
I0
sg11
I01
sg12
I00
sba(iRoom.Tile.Tile
Tile
p183
(dp184
g4
I1
sg5
(I234
I204
I173
tp185
sg7
I2
sg8
I21
sg9
I00
sg10
I0
sg11
I01
sg12
I00
sba(iRoom.Tile.Tile
Tile
p186
(dp187
g4
I1
sg5
(I234
I204
I171
tp188
sg7
I2
sg8
I22
sg9
I00
sg10
I0
sg11
I01
sg12
I00
sba(iRoom.Tile.Wall_tile
Wall
p189
(dp190
g4
I1
sg5
g6
sg7
I2
sg8
I23
sg9
I00
sg10
I0
sg11
I00
sg12
I01
sbaa(lp191
(iRoom.Tile.Wall_tile
Wall
p192
(dp193
g4
I1
sg5
g6
sg7
I3
sg8
I0
sg9
I00
sg10
I0
sg11
I00
sg12
I01
sba(iRoom.Tile.Wall_tile
Wall
p194
(dp195
g4
I1
sg5
g6
sg7
I3
sg8
I1
sg9
I00
sg10
I0
sg11
I00
sg12
I01
sba(iRoom.Tile.Wall_tile
Wall
p196
(dp197
g4
I1
sg5
g6
sg7
I3
sg8
I2
sg9
I00
sg10
I0
sg11
I00
sg12
I01
sba(iRoom.Tile.Tile
Tile
p198
(dp199
g4
I1
sg5
(I240
I201
I175
tp200
sg7
I3
sg8
I3
sg9
I00
sg10
I0
sg11
I01
sg12
I00
sba(iRoom.Tile.Tile
Tile
p201
(dp202
g4
I1
sg5
(I238
I202
I174
tp203
sg7
I3
sg8
I4
sg9
I00
sg10
I0
sg11
I01
sg12
I00
sba(iRoom.Tile.Tile
Tile
p204
(dp205
g4
I1
sg5
(I237
I199
I172
tp206
sg7
I3
sg8
I5
sg9
I00
sg10
I0
sg11
I01
sg12
I00
sba(iRoom.Tile.Tile
Tile
p207
(dp208
g4
I1
sg5
(I233
I198
I173
tp209
sg7
I3
sg8
I6
sg9
I00
sg10
I0
sg11
I01
sg12
I00
sba(iRoom.Tile.Wall_tile
Wall
p210
(dp211
g4
I1
sg5
g6
sg7
I3
sg8
I7
sg9
I00
sg10
I0
sg11
I00
sg12
I01
sba(iRoom.Tile.Tile
Tile
p212
(dp213
g4
I1
sg5
(I237
I203
I175
tp214
sg7
I3
sg8
I8
sg9
I00
sg10
I0
sg11
I01
sg12
I00
sba(iRoom.Tile.Tile
Tile
p215
(dp216
g4
I1
sg5
(I241
I205
I171
tp217
sg7
I3
sg8
I9
sg9
I00
sg10
I0
sg11
I01
sg12
I00
sba(iRoom.Tile.Tile
Tile
p218
(dp219
g4
I1
sg5
(I240
I204
I174
tp220
sg7
I3
sg8
I10
sg9
I00
sg10
I0
sg11
I01
sg12
I00
sba(iRoom.Tile.Tile
Tile
p221
(dp222
g4
I1
sg5
(I233
I197
I177
tp223
sg7
I3
sg8
I11
sg9
I00
sg10
I0
sg11
I01
sg12
I00
sba(iRoom.Tile.Tile
Tile
p224
(dp225
g4
I1
sg5
(I238
I199
I172
tp226
sg7
I3
sg8
I12
sg9
I00
sg10
I0
sg11
I01
sg12
I00
sba(iRoom.Tile.Tile
Tile
p227
(dp228
g4
I1
sg5
(I235
I198
I177
tp229
sg7
I3
sg8
I13
sg9
I00
sg10
I0
sg11
I01
sg12
I00
sba(iRoom.Tile.Tile
Tile
p230
(dp231
g4
I1
sg5
(I241
I197
I176
tp232
sg7
I3
sg8
I14
sg9
I00
sg10
I0
sg11
I01
sg12
I00
sba(iRoom.Tile.Tile
Tile
p233
(dp234
g4
I1
sg5
(I233
I196
I176
tp235
sg7
I3
sg8
I15
sg9
I00
sg10
I0
sg11
I01
sg12
I00
sba(iRoom.Tile.Tile
Tile
p236
(dp237
g4
I1
sg5
(I233
I199
I175
tp238
sg7
I3
sg8
I16
sg9
I00
sg10
I0
sg11
I01
sg12
I00
sba(iRoom.Tile.Tile
Tile
p239
(dp240
g4
I1
sg5
(I233
I200
I171
tp241
sg7
I3
sg8
I17
sg9
I00
sg10
I0
sg11
I01
sg12
I00
sba(iRoom.Tile.Tile
Tile
p242
(dp243
g4
I1
sg5
(I241
I197
I172
tp244
sg7
I3
sg8
I18
sg9
I00
sg10
I0
sg11
I01
sg12
I00
sba(iRoom.Tile.Tile
Tile
p245
(dp246
g4
I1
sg5
(I236
I200
I178
tp247
sg7
I3
sg8
I19
sg9
I00
sg10
I0
sg11
I01
sg12
I00
sba(iRoom.Tile.Wall_tile
Wall
p248
(dp249
g4
I1
sg5
g6
sg7
I3
sg8
I20
sg9
I00
sg10
I0
sg11
I00
sg12
I01
sba(iRoom.Tile.Tile
Tile
p250
(dp251
g4
I1
sg5
(I239
I203
I176
tp252
sg7
I3
sg8
I21
sg9
I00
sg10
I0
sg11
I01
sg12
I00
sba(iRoom.Tile.Tile
Tile
p253
(dp254
g4
I1
sg5
(I233
I202
I178
tp255
sg7
I3
sg8
I22
sg9
I00
sg10
I0
sg11
I01
sg12
I00
sba(iRoom.Tile.Wall_tile
Wall
p256
(dp257
g4
I1
sg5
g6
sg7
I3
sg8
I23
sg9
I00
sg10
I0
sg11
I00
sg12
I01
sbaa(lp258
(iRoom.Tile.Wall_tile
Wall
p259
(dp260
g4
I1
sg5
g6
sg7
I4
sg8
I0
sg9
I00
sg10
I0
sg11
I00
sg12
I01
sba(iRoom.Tile.Tile
Tile
p261
(dp262
g4
I1
sg5
(I241
I196
I179
tp263
sg7
I4
sg8
I1
sg9
I00
sg10
I0
sg11
I01
sg12
I00
sba(iRoom.Tile.Tile
Tile
p264
(dp265
g4
I1
sg5
(I236
I203
I177
tp266
sg7
I4
sg8
I2
sg9
I00
sg10
I0
sg11
I01
sg12
I00
sba(iRoom.Tile.Tile
Tile
p267
(dp268
g4
I1
sg5
(I237
I200
I173
tp269
sg7
I4
sg8
I3
sg9
I00
sg10
I0
sg11
I01
sg12
I00
sba(iRoom.Tile.Wall_tile
Wall
p270
(dp271
g4
I1
sg5
g6
sg7
I4
sg8
I4
sg9
I00
sg10
I0
sg11
I00
sg12
I01
sba(iRoom.Tile.Tile
Tile
p272
(dp273
g4
I1
sg5
(I240
I197
I179
tp274
sg7
I4
sg8
I5
sg9
I00
sg10
I0
sg11
I01
sg12
I00
sba(iRoom.Tile.Tile
Tile
p275
(dp276
g4
I1
sg5
(I239
I203
I172
tp277
sg7
I4
sg8
I6
sg9
I00
sg10
I0
sg11
I01
sg12
I00
sba(iRoom.Tile.Wall_tile
Wall
p278
(dp279
g4
I1
sg5
g6
sg7
I4
sg8
I7
sg9
I00
sg10
I0
sg11
I00
sg12
I01
sba(iRoom.Tile.Tile
Tile
p280
(dp281
g4
I1
sg5
(I234
I201
I178
tp282
sg7
I4
sg8
I8
sg9
I00
sg10
I0
sg11
I01
sg12
I00
sba(iRoom.Tile.Wall_tile
Wall
p283
(dp284
g4
I1
sg5
g6
sg7
I4
sg8
I9
sg9
I00
sg10
I0
sg11
I00
sg12
I01
sba(iRoom.Tile.Tile
Tile
p285
(dp286
g4
I1
sg5
(I236
I204
I176
tp287
sg7
I4
sg8
I10
sg9
I00
sg10
I0
sg11
I01
sg12
I00
sba(iRoom.Tile.Tile
Tile
p288
(dp289
g4
I1
sg5
(I241
I199
I175
tp290
sg7
I4
sg8
I11
sg9
I00
sg10
I0
sg11
I01
sg12
I00
sba(iRoom.Tile.Tile
Tile
p291
(dp292
g4
I1
sg5
(I239
I202
I171
tp293
sg7
I4
sg8
I12
sg9
I00
sg10
I0
sg11
I01
sg12
I00
sba(iRoom.Tile.Tile
Tile
p294
(dp295
g4
I1
sg5
(I240
I199
I175
tp296
sg7
I4
sg8
I13
sg9
I00
sg10
I0
sg11
I01
sg12
I00
sba(iRoom.Tile.Tile
Tile
p297
(dp298
g4
I1
sg5
(I233
I198
I177
tp299
sg7
I4
sg8
I14
sg9
I00
sg10
I0
sg11
I01
sg12
I00
sba(iRoom.Tile.Tile
Tile
p300
(dp301
g4
I1
sg5
(I233
I200
I174
tp302
sg7
I4
sg8
I15
sg9
I00
sg10
I0
sg11
I01
sg12
I00
sba(iRoom.Tile.Tile
Tile
p303
(dp304
g4
I1
sg5
(I237
I200
I178
tp305
sg7
I4
sg8
I16
sg9
I00
sg10
I0
sg11
I01
sg12
I00
sba(iRoom.Tile.Tile
Tile
p306
(dp307
g4
I1
sg5
(I241
I196
I171
tp308
sg7
I4
sg8
I17
sg9
I00
sg10
I0
sg11
I01
sg12
I00
sba(iRoom.Tile.Tile
Tile
p309
(dp310
g4
I1
sg5
(I232
I204
I178
tp311
sg7
I4
sg8
I18
sg9
I00
sg10
I0
sg11
I01
sg12
I00
sba(iRoom.Tile.Tile
Tile
p312
(dp313
g4
I1
sg5
(I237
I201
I174
tp314
sg7
I4
sg8
I19
sg9
I00
sg10
I0
sg11
I01
sg12
I00
sba(iRoom.Tile.Tile
Tile
p315
(dp316
g4
I1
sg5
(I241
I197
I176
tp317
sg7
I4
sg8
I20
sg9
I00
sg10
I0
sg11
I01
sg12
I00
sba(iRoom.Tile.Tile
Tile
p318
(dp319
g4
I1
sg5
(I234
I199
I171
tp320
sg7
I4
sg8
I21
sg9
I00
sg10
I0
sg11
I01
sg12
I00
sba(iRoom.Tile.Tile
Tile
p321
(dp322
g4
I1
sg5
(I235
I197
I177
tp323
sg7
I4
sg8
I22
sg9
I00
sg10
I0
sg11
I01
sg12
I00
sba(iRoom.Tile.Wall_tile
Wall
p324
(dp325
g4
I1
sg5
g6
sg7
I4
sg8
I23
sg9
I00
sg10
I0
sg11
I00
sg12
I01
sbaa(lp326
(iRoom.Tile.Wall_tile
Wall
p327
(dp328
g4
I1
sg5
g6
sg7
I5
sg8
I0
sg9
I00
sg10
I0
sg11
I00
sg12
I01
sba(iRoom.Tile.Tile
Tile
p329
(dp330
g4
I1
sg5
(I241
I201
I174
tp331
sg7
I5
sg8
I1
sg9
I00
sg10
I0
sg11
I01
sg12
I00
sba(iRoom.Tile.Tile
Tile
p332
(dp333
g4
I1
sg5
(I241
I196
I177
tp334
sg7
I5
sg8
I2
sg9
I00
sg10
I0
sg11
I01
sg12
I00
sba(iRoom.Tile.Wall_tile
Wall
p335
(dp336
g4
I1
sg5
g6
sg7
I5
sg8
I3
sg9
I00
sg10
I0
sg11
I00
sg12
I01
sba(iRoom.Tile.Tile
Tile
p337
(dp338
g4
I1
sg5
(I236
I196
I178
tp339
sg7
I5
sg8
I4
sg9
I00
sg10
I0
sg11
I01
sg12
I00
sba(iRoom.Tile.Tile
Tile
p340
(dp341
g4
I1
sg5
(I237
I199
I172
tp342
sg7
I5
sg8
I5
sg9
I00
sg10
I0
sg11
I01
sg12
I00
sba(iRoom.Tile.Tile
Tile
p343
(dp344
g4
I1
sg5
(I240
I196
I172
tp345
sg7
I5
sg8
I6
sg9
I00
sg10
I0
sg11
I01
sg12
I00
sba(iRoom.Tile.Wall_tile
Wall
p346
(dp347
g4
I1
sg5
g6
sg7
I5
sg8
I7
sg9
I00
sg10
I0
sg11
I00
sg12
I01
sba(iRoom.Tile.Tile
Tile
p348
(dp349
g4
I1
sg5
(I237
I199
I179
tp350
sg7
I5
sg8
I8
sg9
I00
sg10
I0
sg11
I01
sg12
I00
sba(iRoom.Tile.Tile
Tile
p351
(dp352
g4
I1
sg5
(I239
I203
I170
tp353
sg7
I5
sg8
I9
sg9
I00
sg10
I0
sg11
I01
sg12
I00
sba(iRoom.Tile.Wall_tile
Wall
p354
(dp355
g4
I1
sg5
g6
sg7
I5
sg8
I10
sg9
I00
sg10
I0
sg11
I00
sg12
I01
sba(iRoom.Tile.Tile
Tile
p356
(dp357
g4
I1
sg5
(I237
I205
I171
tp358
sg7
I5
sg8
I11
sg9
I00
sg10
I0
sg11
I01
sg12
I00
sba(iRoom.Tile.Tile
Tile
p359
(dp360
g4
I1
sg5
(I232
I200
I175
tp361
sg7
I5
sg8
I12
sg9
I00
sg10
I0
sg11
I01
sg12
I00
sba(iRoom.Tile.Tile
Tile
p362
(dp363
g4
I1
sg5
(I241
I199
I172
tp364
sg7
I5
sg8
I13
sg9
I00
sg10
I0
sg11
I01
sg12
I00
sba(iRoom.Tile.Tile
Tile
p365
(dp366
g4
I1
sg5
(I233
I205
I177
tp367
sg7
I5
sg8
I14
sg9
I00
sg10
I0
sg11
I01
sg12
I00
sba(iRoom.Tile.Tile
Tile
p368
(dp369
g4
I1
sg5
(I238
I198
I171
tp370
sg7
I5
sg8
I15
sg9
I00
sg10
I0
sg11
I01
sg12
I00
sba(iRoom.Tile.Tile
Tile
p371
(dp372
g4
I1
sg5
(I240
I204
I177
tp373
sg7
I5
sg8
I16
sg9
I00
sg10
I0
sg11
I01
sg12
I00
sba(iRoom.Tile.Tile
Tile
p374
(dp375
g4
I1
sg5
(I232
I199
I175
tp376
sg7
I5
sg8
I17
sg9
I00
sg10
I0
sg11
I01
sg12
I00
sba(iRoom.Tile.Wall_tile
Wall
p377
(dp378
g4
I1
sg5
g6
sg7
I5
sg8
I18
sg9
I00
sg10
I0
sg11
I00
sg12
I01
sba(iRoom.Tile.Tile
Tile
p379
(dp380
g4
I1
sg5
(I233
I205
I178
tp381
sg7
I5
sg8
I19
sg9
I00
sg10
I0
sg11
I01
sg12
I00
sba(iRoom.Tile.Tile
Tile
p382
(dp383
g4
I1
sg5
(I239
I204
I176
tp384
sg7
I5
sg8
I20
sg9
I00
sg10
I0
sg11
I01
sg12
I00
sba(iRoom.Tile.Wall_tile
Wall
p385
(dp386
g4
I1
sg5
g6
sg7
I5
sg8
I21
sg9
I00
sg10
I0
sg11
I00
sg12
I01
sba(iRoom.Tile.Tile
Tile
p387
(dp388
g4
I1
sg5
(I234
I197
I178
tp389
sg7
I5
sg8
I22
sg9
I00
sg10
I0
sg11
I01
sg12
I00
sba(iRoom.Tile.Wall_tile
Wall
p390
(dp391
g4
I1
sg5
g6
sg7
I5
sg8
I23
sg9
I00
sg10
I0
sg11
I00
sg12
I01
sbaa(lp392
(iRoom.Tile.Wall_tile
Wall
p393
(dp394
g4
I1
sg5
g6
sg7
I6
sg8
I0
sg9
I00
sg10
I0
sg11
I00
sg12
I01
sba(iRoom.Tile.Wall_tile
Wall
p395
(dp396
g4
I1
sg5
g6
sg7
I6
sg8
I1
sg9
I00
sg10
I0
sg11
I00
sg12
I01
sba(iRoom.Tile.Tile
Tile
p397
(dp398
g4
I1
sg5
(I239
I204
I179
tp399
sg7
I6
sg8
I2
sg9
I00
sg10
I0
sg11
I01
sg12
I00
sba(iRoom.Tile.Tile
Tile
p400
(dp401
g4
I1
sg5
(I235
I204
I172
tp402
sg7
I6
sg8
I3
sg9
I00
sg10
I0
sg11
I01
sg12
I00
sba(iRoom.Tile.Tile
Tile
p403
(dp404
g4
I1
sg5
(I239
I198
I179
tp405
sg7
I6
sg8
I4
sg9
I00
sg10
I0
sg11
I01
sg12
I00
sba(iRoom.Tile.Tile
Tile
p406
(dp407
g4
I1
sg5
(I232
I203
I179
tp408
sg7
I6
sg8
I5
sg9
I00
sg10
I0
sg11
I01
sg12
I00
sba(iRoom.Tile.Tile
Tile
p409
(dp410
g4
I1
sg5
(I234
I201
I179
tp411
sg7
I6
sg8
I6
sg9
I00
sg10
I0
sg11
I01
sg12
I00
sba(iRoom.Tile.Tile
Tile
p412
(dp413
g4
I1
sg5
(I241
I205
I173
tp414
sg7
I6
sg8
I7
sg9
I00
sg10
I0
sg11
I01
sg12
I00
sba(iRoom.Tile.Tile
Tile
p415
(dp416
g4
I1
sg5
(I237
I203
I176
tp417
sg7
I6
sg8
I8
sg9
I00
sg10
I0
sg11
I01
sg12
I00
sba(iRoom.Tile.Wall_tile
Wall
p418
(dp419
g4
I1
sg5
g6
sg7
I6
sg8
I9
sg9
I00
sg10
I0
sg11
I00
sg12
I01
sba(iRoom.Tile.Tile
Tile
p420
(dp421
g4
I1
sg5
(I232
I197
I171
tp422
sg7
I6
sg8
I10
sg9
I00
sg10
I0
sg11
I01
sg12
I00
sba(iRoom.Tile.Tile
Tile
p423
(dp424
g4
I1
sg5
(I240
I205
I170
tp425
sg7
I6
sg8
I11
sg9
I00
sg10
I0
sg11
I01
sg12
I00
sba(iRoom.Tile.Tile
Tile
p426
(dp427
g4
I1
sg5
(I234
I202
I176
tp428
sg7
I6
sg8
I12
sg9
I00
sg10
I0
sg11
I01
sg12
I00
sba(iRoom.Tile.Tile
Tile
p429
(dp430
g4
I1
sg5
(I234
I205
I175
tp431
sg7
I6
sg8
I13
sg9
I00
sg10
I0
sg11
I01
sg12
I00
sba(iRoom.Tile.Wall_tile
Wall
p432
(dp433
g4
I1
sg5
g6
sg7
I6
sg8
I14
sg9
I00
sg10
I0
sg11
I00
sg12
I01
sba(iRoom.Tile.Tile
Tile
p434
(dp435
g4
I1
sg5
(I236
I197
I170
tp436
sg7
I6
sg8
I15
sg9
I00
sg10
I0
sg11
I01
sg12
I00
sba(iRoom.Tile.Wall_tile
Wall
p437
(dp438
g4
I1
sg5
g6
sg7
I6
sg8
I16
sg9
I00
sg10
I0
sg11
I00
sg12
I01
sba(iRoom.Tile.Tile
Tile
p439
(dp440
g4
I1
sg5
(I232
I203
I171
tp441
sg7
I6
sg8
I17
sg9
I00
sg10
I0
sg11
I01
sg12
I00
sba(iRoom.Tile.Wall_tile
Wall
p442
(dp443
g4
I1
sg5
g6
sg7
I6
sg8
I18
sg9
I00
sg10
I0
sg11
I00
sg12
I01
sba(iRoom.Tile.Tile
Tile
p444
(dp445
g4
I1
sg5
(I232
I199
I176
tp446
sg7
I6
sg8
I19
sg9
I00
sg10
I0
sg11
I01
sg12
I00
sba(iRoom.Tile.Tile
Tile
p447
(dp448
g4
I1
sg5
(I241
I205
I171
tp449
sg7
I6
sg8
I20
sg9
I00
sg10
I0
sg11
I01
sg12
I00
sba(iRoom.Tile.Wall_tile
Wall
p450
(dp451
g4
I1
sg5
g6
sg7
I6
sg8
I21
sg9
I00
sg10
I0
sg11
I00
sg12
I01
sba(iRoom.Tile.Tile
Tile
p452
(dp453
g4
I1
sg5
(I239
I196
I176
tp454
sg7
I6
sg8
I22
sg9
I00
sg10
I0
sg11
I01
sg12
I00
sba(iRoom.Tile.Wall_tile
Wall
p455
(dp456
g4
I1
sg5
g6
sg7
I6
sg8
I23
sg9
I00
sg10
I0
sg11
I00
sg12
I01
sbaa(lp457
(iRoom.Tile.Wall_tile
Wall
p458
(dp459
g4
I1
sg5
g6
sg7
I7
sg8
I0
sg9
I00
sg10
I0
sg11
I00
sg12
I01
sba(iRoom.Tile.Tile
Tile
p460
(dp461
g4
I1
sg5
(I233
I197
I178
tp462
sg7
I7
sg8
I1
sg9
I00
sg10
I0
sg11
I01
sg12
I00
sba(iRoom.Tile.Wall_tile
Wall
p463
(dp464
g4
I1
sg5
g6
sg7
I7
sg8
I2
sg9
I00
sg10
I0
sg11
I00
sg12
I01
sba(iRoom.Tile.Tile
Tile
p465
(dp466
g4
I1
sg5
(I232
I202
I173
tp467
sg7
I7
sg8
I3
sg9
I00
sg10
I0
sg11
I01
sg12
I00
sba(iRoom.Tile.Tile
Tile
p468
(dp469
g4
I1
sg5
(I234
I199
I178
tp470
sg7
I7
sg8
I4
sg9
I00
sg10
I0
sg11
I01
sg12
I00
sba(iRoom.Tile.Tile
Tile
p471
(dp472
g4
I1
sg5
(I236
I196
I171
tp473
sg7
I7
sg8
I5
sg9
I00
sg10
I0
sg11
I01
sg12
I00
sba(iRoom.Tile.Tile
Tile
p474
(dp475
g4
I1
sg5
(I241
I204
I171
tp476
sg7
I7
sg8
I6
sg9
I00
sg10
I0
sg11
I01
sg12
I00
sba(iRoom.Tile.Tile
Tile
p477
(dp478
g4
I1
sg5
(I235
I200
I175
tp479
sg7
I7
sg8
I7
sg9
I00
sg10
I0
sg11
I01
sg12
I00
sba(iRoom.Tile.Tile
Tile
p480
(dp481
g4
I1
sg5
(I241
I201
I171
tp482
sg7
I7
sg8
I8
sg9
I00
sg10
I0
sg11
I01
sg12
I00
sba(iRoom.Tile.Tile
Tile
p483
(dp484
g4
I1
sg5
(I241
I203
I177
tp485
sg7
I7
sg8
I9
sg9
I00
sg10
I0
sg11
I01
sg12
I00
sba(iRoom.Tile.Tile
Tile
p486
(dp487
g4
I1
sg5
(I239
I204
I175
tp488
sg7
I7
sg8
I10
sg9
I00
sg10
I0
sg11
I01
sg12
I00
sba(iRoom.Tile.Tile
Tile
p489
(dp490
g4
I1
sg5
(I234
I200
I178
tp491
sg7
I7
sg8
I11
sg9
I00
sg10
I0
sg11
I01
sg12
I00
sba(iRoom.Tile.Tile
Tile
p492
(dp493
g4
I1
sg5
(I236
I201
I171
tp494
sg7
I7
sg8
I12
sg9
I00
sg10
I0
sg11
I01
sg12
I00
sba(iRoom.Tile.Tile
Tile
p495
(dp496
g4
I1
sg5
(I241
I197
I170
tp497
sg7
I7
sg8
I13
sg9
I00
sg10
I0
sg11
I01
sg12
I00
sba(iRoom.Tile.Tile
Tile
p498
(dp499
g4
I1
sg5
(I237
I197
I179
tp500
sg7
I7
sg8
I14
sg9
I00
sg10
I0
sg11
I01
sg12
I00
sba(iRoom.Tile.Tile
Tile
p501
(dp502
g4
I1
sg5
(I232
I201
I173
tp503
sg7
I7
sg8
I15
sg9
I00
sg10
I0
sg11
I01
sg12
I00
sba(iRoom.Tile.Wall_tile
Wall
p504
(dp505
g4
I1
sg5
g6
sg7
I7
sg8
I16
sg9
I00
sg10
I0
sg11
I00
sg12
I01
sba(iRoom.Tile.Wall_tile
Wall
p506
(dp507
g4
I1
sg5
g6
sg7
I7
sg8
I17
sg9
I00
sg10
I0
sg11
I00
sg12
I01
sba(iRoom.Tile.Tile
Tile
p508
(dp509
g4
I1
sg5
(I240
I198
I179
tp510
sg7
I7
sg8
I18
sg9
I00
sg10
I0
sg11
I01
sg12
I00
sba(iRoom.Tile.Tile
Tile
p511
(dp512
g4
I1
sg5
(I235
I197
I171
tp513
sg7
I7
sg8
I19
sg9
I00
sg10
I0
sg11
I01
sg12
I00
sba(iRoom.Tile.Tile
Tile
p514
(dp515
g4
I1
sg5
(I233
I201
I174
tp516
sg7
I7
sg8
I20
sg9
I00
sg10
I0
sg11
I01
sg12
I00
sba(iRoom.Tile.Tile
Tile
p517
(dp518
g4
I1
sg5
(I239
I205
I177
tp519
sg7
I7
sg8
I21
sg9
I00
sg10
I0
sg11
I01
sg12
I00
sba(iRoom.Tile.Tile
Tile
p520
(dp521
g4
I1
sg5
(I235
I197
I175
tp522
sg7
I7
sg8
I22
sg9
I00
sg10
I0
sg11
I01
sg12
I00
sba(iRoom.Tile.Wall_tile
Wall
p523
(dp524
g4
I1
sg5
g6
sg7
I7
sg8
I23
sg9
I00
sg10
I0
sg11
I00
sg12
I01
sbaa(lp525
(iRoom.Tile.Wall_tile
Wall
p526
(dp527
g4
I1
sg5
g6
sg7
I8
sg8
I0
sg9
I00
sg10
I0
sg11
I00
sg12
I01
sba(iRoom.Tile.Tile
Tile
p528
(dp529
g4
I1
sg5
(I235
I203
I170
tp530
sg7
I8
sg8
I1
sg9
I00
sg10
I0
sg11
I01
sg12
I00
sba(iRoom.Tile.Tile
Tile
p531
(dp532
g4
I1
sg5
(I234
I197
I177
tp533
sg7
I8
sg8
I2
sg9
I00
sg10
I0
sg11
I01
sg12
I00
sba(iRoom.Tile.Tile
Tile
p534
(dp535
g4
I1
sg5
(I241
I203
I173
tp536
sg7
I8
sg8
I3
sg9
I00
sg10
I0
sg11
I01
sg12
I00
sba(iRoom.Tile.Wall_tile
Wall
p537
(dp538
g4
I1
sg5
g6
sg7
I8
sg8
I4
sg9
I00
sg10
I0
sg11
I00
sg12
I01
sba(iRoom.Tile.Tile
Tile
p539
(dp540
g4
I1
sg5
(I235
I203
I173
tp541
sg7
I8
sg8
I5
sg9
I00
sg10
I0
sg11
I01
sg12
I00
sba(iRoom.Tile.Tile
Tile
p542
(dp543
g4
I1
sg5
(I235
I199
I176
tp544
sg7
I8
sg8
I6
sg9
I00
sg10
I0
sg11
I01
sg12
I00
sba(iRoom.Tile.Tile
Tile
p545
(dp546
g4
I1
sg5
(I236
I197
I179
tp547
sg7
I8
sg8
I7
sg9
I00
sg10
I0
sg11
I01
sg12
I00
sba(iRoom.Tile.Wall_tile
Wall
p548
(dp549
g4
I1
sg5
g6
sg7
I8
sg8
I8
sg9
I00
sg10
I0
sg11
I00
sg12
I01
sba(iRoom.Tile.Tile
Tile
p550
(dp551
g4
I1
sg5
(I232
I200
I178
tp552
sg7
I8
sg8
I9
sg9
I00
sg10
I0
sg11
I01
sg12
I00
sba(iRoom.Tile.Tile
Tile
p553
(dp554
g4
I1
sg5
(I236
I198
I176
tp555
sg7
I8
sg8
I10
sg9
I00
sg10
I0
sg11
I01
sg12
I00
sba(iRoom.Tile.Tile
Tile
p556
(dp557
g4
I1
sg5
(I240
I197
I173
tp558
sg7
I8
sg8
I11
sg9
I00
sg10
I0
sg11
I01
sg12
I00
sba(iRoom.Tile.Tile
Tile
p559
(dp560
g4
I1
sg5
(I238
I199
I174
tp561
sg7
I8
sg8
I12
sg9
I00
sg10
I0
sg11
I01
sg12
I00
sba(iRoom.Tile.Tile
Tile
p562
(dp563
g4
I1
sg5
(I238
I200
I171
tp564
sg7
I8
sg8
I13
sg9
I00
sg10
I0
sg11
I01
sg12
I00
sba(iRoom.Tile.Tile
Tile
p565
(dp566
g4
I1
sg5
(I241
I203
I174
tp567
sg7
I8
sg8
I14
sg9
I00
sg10
I0
sg11
I01
sg12
I00
sba(iRoom.Tile.Tile
Tile
p568
(dp569
g4
I1
sg5
(I236
I197
I178
tp570
sg7
I8
sg8
I15
sg9
I00
sg10
I0
sg11
I01
sg12
I00
sba(iRoom.Tile.Wall_tile
Wall
p571
(dp572
g4
I1
sg5
g6
sg7
I8
sg8
I16
sg9
I00
sg10
I0
sg11
I00
sg12
I01
sba(iRoom.Tile.Tile
Tile
p573
(dp574
g4
I1
sg5
(I237
I200
I178
tp575
sg7
I8
sg8
I17
sg9
I00
sg10
I0
sg11
I01
sg12
I00
sba(iRoom.Tile.Tile
Tile
p576
(dp577
g4
I1
sg5
(I241
I200
I170
tp578
sg7
I8
sg8
I18
sg9
I00
sg10
I0
sg11
I01
sg12
I00
sba(iRoom.Tile.Tile
Tile
p579
(dp580
g4
I1
sg5
(I239
I205
I177
tp581
sg7
I8
sg8
I19
sg9
I00
sg10
I0
sg11
I01
sg12
I00
sba(iRoom.Tile.Wall_tile
Wall
p582
(dp583
g4
I1
sg5
g6
sg7
I8
sg8
I20
sg9
I00
sg10
I0
sg11
I00
sg12
I01
sba(iRoom.Tile.Tile
Tile
p584
(dp585
g4
I1
sg5
(I240
I200
I173
tp586
sg7
I8
sg8
I21
sg9
I00
sg10
I0
sg11
I01
sg12
I00
sba(iRoom.Tile.Tile
Tile
p587
(dp588
g4
I1
sg5
(I237
I202
I172
tp589
sg7
I8
sg8
I22
sg9
I00
sg10
I0
sg11
I01
sg12
I00
sba(iRoom.Tile.Wall_tile
Wall
p590
(dp591
g4
I1
sg5
g6
sg7
I8
sg8
I23
sg9
I00
sg10
I0
sg11
I00
sg12
I01
sbaa(lp592
(iRoom.Tile.Wall_tile
Wall
p593
(dp594
g4
I1
sg5
g6
sg7
I9
sg8
I0
sg9
I00
sg10
I0
sg11
I00
sg12
I01
sba(iRoom.Tile.Tile
Tile
p595
(dp596
g4
I1
sg5
(I237
I197
I173
tp597
sg7
I9
sg8
I1
sg9
I00
sg10
I0
sg11
I01
sg12
I00
sba(iRoom.Tile.Tile
Tile
p598
(dp599
g4
I1
sg5
(I239
I200
I172
tp600
sg7
I9
sg8
I2
sg9
I00
sg10
I0
sg11
I01
sg12
I00
sba(iRoom.Tile.Wall_tile
Wall
p601
(dp602
g4
I1
sg5
g6
sg7
I9
sg8
I3
sg9
I00
sg10
I0
sg11
I00
sg12
I01
sba(iRoom.Tile.Wall_tile
Wall
p603
(dp604
g4
I1
sg5
g6
sg7
I9
sg8
I4
sg9
I00
sg10
I0
sg11
I00
sg12
I01
sba(iRoom.Tile.Wall_tile
Wall
p605
(dp606
g4
I1
sg5
g6
sg7
I9
sg8
I5
sg9
I00
sg10
I0
sg11
I00
sg12
I01
sba(iRoom.Tile.Wall_tile
Wall
p607
(dp608
g4
I1
sg5
g6
sg7
I9
sg8
I6
sg9
I00
sg10
I0
sg11
I00
sg12
I01
sba(iRoom.Tile.Tile
Tile
p609
(dp610
g4
I1
sg5
(I235
I197
I174
tp611
sg7
I9
sg8
I7
sg9
I00
sg10
I0
sg11
I01
sg12
I00
sba(iRoom.Tile.Tile
Tile
p612
(dp613
g4
I1
sg5
(I240
I197
I174
tp614
sg7
I9
sg8
I8
sg9
I00
sg10
I0
sg11
I01
sg12
I00
sba(iRoom.Tile.Tile
Tile
p615
(dp616
g4
I1
sg5
(I241
I204
I177
tp617
sg7
I9
sg8
I9
sg9
I00
sg10
I0
sg11
I01
sg12
I00
sba(iRoom.Tile.Tile
Tile
p618
(dp619
g4
I1
sg5
(I236
I197
I176
tp620
sg7
I9
sg8
I10
sg9
I00
sg10
I0
sg11
I01
sg12
I00
sba(iRoom.Tile.Wall_tile
Wall
p621
(dp622
g4
I1
sg5
g6
sg7
I9
sg8
I11
sg9
I00
sg10
I0
sg11
I00
sg12
I01
sba(iRoom.Tile.Tile
Tile
p623
(dp624
g4
I1
sg5
(I241
I200
I176
tp625
sg7
I9
sg8
I12
sg9
I00
sg10
I0
sg11
I01
sg12
I00
sba(iRoom.Tile.Tile
Tile
p626
(dp627
g4
I1
sg5
(I232
I198
I177
tp628
sg7
I9
sg8
I13
sg9
I00
sg10
I0
sg11
I01
sg12
I00
sba(iRoom.Tile.Tile
Tile
p629
(dp630
g4
I1
sg5
(I238
I202
I174
tp631
sg7
I9
sg8
I14
sg9
I00
sg10
I0
sg11
I01
sg12
I00
sba(iRoom.Tile.Tile
Tile
p632
(dp633
g4
I1
sg5
(I238
I205
I170
tp634
sg7
I9
sg8
I15
sg9
I00
sg10
I0
sg11
I01
sg12
I00
sba(iRoom.Tile.Tile
Tile
p635
(dp636
g4
I1
sg5
(I235
I196
I170
tp637
sg7
I9
sg8
I16
sg9
I00
sg10
I0
sg11
I01
sg12
I00
sba(iRoom.Tile.Tile
Tile
p638
(dp639
g4
I1
sg5
(I237
I200
I175
tp640
sg7
I9
sg8
I17
sg9
I00
sg10
I0
sg11
I01
sg12
I00
sba(iRoom.Tile.Tile
Tile
p641
(dp642
g4
I1
sg5
(I235
I200
I173
tp643
sg7
I9
sg8
I18
sg9
I00
sg10
I0
sg11
I01
sg12
I00
sba(iRoom.Tile.Wall_tile
Wall
p644
(dp645
g4
I1
sg5
g6
sg7
I9
sg8
I19
sg9
I00
sg10
I0
sg11
I00
sg12
I01
sba(iRoom.Tile.Tile
Tile
p646
(dp647
g4
I1
sg5
(I234
I199
I175
tp648
sg7
I9
sg8
I20
sg9
I00
sg10
I0
sg11
I01
sg12
I00
sba(iRoom.Tile.Tile
Tile
p649
(dp650
g4
I1
sg5
(I234
I198
I179
tp651
sg7
I9
sg8
I21
sg9
I00
sg10
I0
sg11
I01
sg12
I00
sba(iRoom.Tile.Tile
Tile
p652
(dp653
g4
I1
sg5
(I237
I197
I170
tp654
sg7
I9
sg8
I22
sg9
I00
sg10
I0
sg11
I01
sg12
I00
sba(iRoom.Tile.Wall_tile
Wall
p655
(dp656
g4
I1
sg5
g6
sg7
I9
sg8
I23
sg9
I00
sg10
I0
sg11
I00
sg12
I01
sbaa(lp657
(iRoom.Tile.Wall_tile
Wall
p658
(dp659
g4
I1
sg5
g6
sg7
I10
sg8
I0
sg9
I00
sg10
I0
sg11
I00
sg12
I01
sba(iRoom.Tile.Tile
Tile
p660
(dp661
g4
I1
sg5
(I236
I197
I171
tp662
sg7
I10
sg8
I1
sg9
I00
sg10
I0
sg11
I01
sg12
I00
sba(iRoom.Tile.Tile
Tile
p663
(dp664
g4
I1
sg5
(I234
I200
I174
tp665
sg7
I10
sg8
I2
sg9
I00
sg10
I0
sg11
I01
sg12
I00
sba(iRoom.Tile.Tile
Tile
p666
(dp667
g4
I1
sg5
(I236
I204
I179
tp668
sg7
I10
sg8
I3
sg9
I00
sg10
I0
sg11
I01
sg12
I00
sba(iRoom.Tile.Tile
Tile
p669
(dp670
g4
I1
sg5
(I233
I205
I171
tp671
sg7
I10
sg8
I4
sg9
I00
sg10
I0
sg11
I01
sg12
I00
sba(iRoom.Tile.Tile
Tile
p672
(dp673
g4
I1
sg5
(I233
I203
I174
tp674
sg7
I10
sg8
I5
sg9
I00
sg10
I0
sg11
I01
sg12
I00
sba(iRoom.Tile.Tile
Tile
p675
(dp676
g4
I1
sg5
(I233
I196
I179
tp677
sg7
I10
sg8
I6
sg9
I00
sg10
I0
sg11
I01
sg12
I00
sba(iRoom.Tile.Tile
Tile
p678
(dp679
g4
I1
sg5
(I239
I199
I172
tp680
sg7
I10
sg8
I7
sg9
I00
sg10
I0
sg11
I01
sg12
I00
sba(iRoom.Tile.Tile
Tile
p681
(dp682
g4
I1
sg5
(I241
I204
I170
tp683
sg7
I10
sg8
I8
sg9
I00
sg10
I0
sg11
I01
sg12
I00
sba(iRoom.Tile.Tile
Tile
p684
(dp685
g4
I1
sg5
(I236
I202
I177
tp686
sg7
I10
sg8
I9
sg9
I00
sg10
I0
sg11
I01
sg12
I00
sba(iRoom.Tile.Tile
Tile
p687
(dp688
g4
I1
sg5
(I233
I198
I171
tp689
sg7
I10
sg8
I10
sg9
I00
sg10
I0
sg11
I01
sg12
I00
sba(iRoom.Tile.Tile
Tile
p690
(dp691
g4
I1
sg5
(I236
I201
I175
tp692
sg7
I10
sg8
I11
sg9
I00
sg10
I0
sg11
I01
sg12
I00
sba(iRoom.Tile.Tile
Tile
p693
(dp694
g4
I1
sg5
(I233
I197
I176
tp695
sg7
I10
sg8
I12
sg9
I00
sg10
I0
sg11
I01
sg12
I00
sba(iRoom.Tile.Wall_tile
Wall
p696
(dp697
g4
I1
sg5
g6
sg7
I10
sg8
I13
sg9
I00
sg10
I0
sg11
I00
sg12
I01
sba(iRoom.Tile.Tile
Tile
p698
(dp699
g4
I1
sg5
(I238
I203
I171
tp700
sg7
I10
sg8
I14
sg9
I00
sg10
I0
sg11
I01
sg12
I00
sba(iRoom.Tile.Tile
Tile
p701
(dp702
g4
I1
sg5
(I233
I197
I175
tp703
sg7
I10
sg8
I15
sg9
I00
sg10
I0
sg11
I01
sg12
I00
sba(iRoom.Tile.Tile
Tile
p704
(dp705
g4
I1
sg5
(I239
I200
I174
tp706
sg7
I10
sg8
I16
sg9
I00
sg10
I0
sg11
I01
sg12
I00
sba(iRoom.Tile.Tile
Tile
p707
(dp708
g4
I1
sg5
(I237
I197
I175
tp709
sg7
I10
sg8
I17
sg9
I00
sg10
I0
sg11
I01
sg12
I00
sba(iRoom.Tile.Tile
Tile
p710
(dp711
g4
I1
sg5
(I238
I200
I172
tp712
sg7
I10
sg8
I18
sg9
I00
sg10
I0
sg11
I01
sg12
I00
sba(iRoom.Tile.Tile
Tile
p713
(dp714
g4
I1
sg5
(I236
I200
I177
tp715
sg7
I10
sg8
I19
sg9
I00
sg10
I0
sg11
I01
sg12
I00
sba(iRoom.Tile.Tile
Tile
p716
(dp717
g4
I1
sg5
(I240
I199
I177
tp718
sg7
I10
sg8
I20
sg9
I00
sg10
I0
sg11
I01
sg12
I00
sba(iRoom.Tile.Tile
Tile
p719
(dp720
g4
I1
sg5
(I238
I199
I179
tp721
sg7
I10
sg8
I21
sg9
I00
sg10
I0
sg11
I01
sg12
I00
sba(iRoom.Tile.Wall_tile
Wall
p722
(dp723
g4
I1
sg5
g6
sg7
I10
sg8
I22
sg9
I00
sg10
I0
sg11
I00
sg12
I01
sba(iRoom.Tile.Wall_tile
Wall
p724
(dp725
g4
I1
sg5
g6
sg7
I10
sg8
I23
sg9
I00
sg10
I0
sg11
I00
sg12
I01
sbaa(lp726
(iRoom.Tile.Wall_tile
Wall
p727
(dp728
g4
I1
sg5
g6
sg7
I11
sg8
I0
sg9
I00
sg10
I0
sg11
I00
sg12
I01
sba(iRoom.Tile.Tile
Tile
p729
(dp730
g4
I1
sg5
(I241
I201
I172
tp731
sg7
I11
sg8
I1
sg9
I00
sg10
I0
sg11
I01
sg12
I00
sba(iRoom.Tile.Tile
Tile
p732
(dp733
g4
I1
sg5
(I232
I204
I179
tp734
sg7
I11
sg8
I2
sg9
I00
sg10
I0
sg11
I01
sg12
I00
sba(iRoom.Tile.Wall_tile
Wall
p735
(dp736
g4
I1
sg5
g6
sg7
I11
sg8
I3
sg9
I00
sg10
I0
sg11
I00
sg12
I01
sba(iRoom.Tile.Tile
Tile
p737
(dp738
g4
I1
sg5
(I237
I199
I176
tp739
sg7
I11
sg8
I4
sg9
I00
sg10
I0
sg11
I01
sg12
I00
sba(iRoom.Tile.Tile
Tile
p740
(dp741
g4
I1
sg5
(I235
I202
I173
tp742
sg7
I11
sg8
I5
sg9
I00
sg10
I0
sg11
I01
sg12
I00
sba(iRoom.Tile.Tile
Tile
p743
(dp744
g4
I1
sg5
(I240
I202
I176
tp745
sg7
I11
sg8
I6
sg9
I00
sg10
I0
sg11
I01
sg12
I00
sba(iRoom.Tile.Tile
Tile
p746
(dp747
g4
I1
sg5
(I240
I199
I172
tp748
sg7
I11
sg8
I7
sg9
I00
sg10
I0
sg11
I01
sg12
I00
sba(iRoom.Tile.Tile
Tile
p749
(dp750
g4
I1
sg5
(I238
I198
I178
tp751
sg7
I11
sg8
I8
sg9
I00
sg10
I0
sg11
I01
sg12
I00
sba(iRoom.Tile.Tile
Tile
p752
(dp753
g4
I1
sg5
(I233
I203
I176
tp754
sg7
I11
sg8
I9
sg9
I00
sg10
I0
sg11
I01
sg12
I00
sba(iRoom.Tile.Tile
Tile
p755
(dp756
g4
I1
sg5
(I240
I205
I179
tp757
sg7
I11
sg8
I10
sg9
I00
sg10
I0
sg11
I01
sg12
I00
sba(iRoom.Tile.Wall_tile
Wall
p758
(dp759
g4
I1
sg5
g6
sg7
I11
sg8
I11
sg9
I00
sg10
I0
sg11
I00
sg12
I01
sba(iRoom.Tile.Tile
Tile
p760
(dp761
g4
I1
sg5
(I237
I202
I172
tp762
sg7
I11
sg8
I12
sg9
I00
sg10
I0
sg11
I01
sg12
I00
sba(iRoom.Tile.Tile
Tile
p763
(dp764
g4
I1
sg5
(I239
I197
I178
tp765
sg7
I11
sg8
I13
sg9
I00
sg10
I0
sg11
I01
sg12
I00
sba(iRoom.Tile.Wall_tile
Wall
p766
(dp767
g4
I1
sg5
g6
sg7
I11
sg8
I14
sg9
I00
sg10
I0
sg11
I00
sg12
I01
sba(iRoom.Tile.Tile
Tile
p768
(dp769
g4
I1
sg5
(I239
I204
I174
tp770
sg7
I11
sg8
I15
sg9
I00
sg10
I0
sg11
I01
sg12
I00
sba(iRoom.Tile.Tile
Tile
p771
(dp772
g4
I1
sg5
(I234
I199
I173
tp773
sg7
I11
sg8
I16
sg9
I00
sg10
I0
sg11
I01
sg12
I00
sba(iRoom.Tile.Tile
Tile
p774
(dp775
g4
I1
sg5
(I232
I204
I179
tp776
sg7
I11
sg8
I17
sg9
I00
sg10
I0
sg11
I01
sg12
I00
sba(iRoom.Tile.Tile
Tile
p777
(dp778
g4
I1
sg5
(I236
I203
I178
tp779
sg7
I11
sg8
I18
sg9
I00
sg10
I0
sg11
I01
sg12
I00
sba(iRoom.Tile.Wall_tile
Wall
p780
(dp781
g4
I1
sg5
g6
sg7
I11
sg8
I19
sg9
I00
sg10
I0
sg11
I00
sg12
I01
sba(iRoom.Tile.Tile
Tile
p782
(dp783
g4
I1
sg5
(I234
I203
I171
tp784
sg7
I11
sg8
I20
sg9
I00
sg10
I0
sg11
I01
sg12
I00
sba(iRoom.Tile.Tile
Tile
p785
(dp786
g4
I1
sg5
(I237
I197
I174
tp787
sg7
I11
sg8
I21
sg9
I00
sg10
I0
sg11
I01
sg12
I00
sba(iRoom.Tile.Wall_tile
Wall
p788
(dp789
g4
I1
sg5
g6
sg7
I11
sg8
I22
sg9
I00
sg10
I0
sg11
I00
sg12
I01
sba(iRoom.Tile.Wall_tile
Wall
p790
(dp791
g4
I1
sg5
g6
sg7
I11
sg8
I23
sg9
I00
sg10
I0
sg11
I00
sg12
I01
sbaa(lp792
(iRoom.Tile.Wall_tile
Wall
p793
(dp794
g4
I1
sg5
g6
sg7
I12
sg8
I0
sg9
I00
sg10
I0
sg11
I00
sg12
I01
sba(iRoom.Tile.Tile
Tile
p795
(dp796
g4
I1
sg5
(I241
I204
I176
tp797
sg7
I12
sg8
I1
sg9
I00
sg10
I0
sg11
I01
sg12
I00
sba(iRoom.Tile.Tile
Tile
p798
(dp799
g4
I1
sg5
(I232
I197
I178
tp800
sg7
I12
sg8
I2
sg9
I00
sg10
I0
sg11
I01
sg12
I00
sba(iRoom.Tile.Tile
Tile
p801
(dp802
g4
I1
sg5
(I240
I197
I178
tp803
sg7
I12
sg8
I3
sg9
I00
sg10
I0
sg11
I01
sg12
I00
sba(iRoom.Tile.Tile
Tile
p804
(dp805
g4
I1
sg5
(I239
I205
I178
tp806
sg7
I12
sg8
I4
sg9
I00
sg10
I0
sg11
I01
sg12
I00
sba(iRoom.Tile.Tile
Tile
p807
(dp808
g4
I1
sg5
(I237
I203
I175
tp809
sg7
I12
sg8
I5
sg9
I00
sg10
I0
sg11
I01
sg12
I00
sba(iRoom.Tile.Tile
Tile
p810
(dp811
g4
I1
sg5
(I240
I199
I175
tp812
sg7
I12
sg8
I6
sg9
I00
sg10
I0
sg11
I01
sg12
I00
sba(iRoom.Tile.Tile
Tile
p813
(dp814
g4
I1
sg5
(I236
I197
I174
tp815
sg7
I12
sg8
I7
sg9
I00
sg10
I0
sg11
I01
sg12
I00
sba(iRoom.Tile.Tile
Tile
p816
(dp817
g4
I1
sg5
(I240
I200
I177
tp818
sg7
I12
sg8
I8
sg9
I00
sg10
I0
sg11
I01
sg12
I00
sba(iRoom.Tile.Tile
Tile
p819
(dp820
g4
I1
sg5
(I236
I198
I171
tp821
sg7
I12
sg8
I9
sg9
I00
sg10
I0
sg11
I01
sg12
I00
sba(iRoom.Tile.Tile
Tile
p822
(dp823
g4
I1
sg5
(I240
I198
I177
tp824
sg7
I12
sg8
I10
sg9
I00
sg10
I0
sg11
I01
sg12
I00
sba(iRoom.Tile.Tile
Tile
p825
(dp826
g4
I1
sg5
(I233
I201
I170
tp827
sg7
I12
sg8
I11
sg9
I00
sg10
I0
sg11
I01
sg12
I00
sba(iRoom.Tile.Tile
Tile
p828
(dp829
g4
I1
sg5
(I237
I202
I176
tp830
sg7
I12
sg8
I12
sg9
I00
sg10
I0
sg11
I01
sg12
I00
sba(iRoom.Tile.Tile
Tile
p831
(dp832
g4
I1
sg5
(I237
I196
I174
tp833
sg7
I12
sg8
I13
sg9
I00
sg10
I0
sg11
I01
sg12
I00
sba(iRoom.Tile.Tile
Tile
p834
(dp835
g4
I1
sg5
(I232
I200
I171
tp836
sg7
I12
sg8
I14
sg9
I00
sg10
I0
sg11
I01
sg12
I00
sba(iRoom.Tile.Tile
Tile
p837
(dp838
g4
I1
sg5
(I234
I197
I175
tp839
sg7
I12
sg8
I15
sg9
I00
sg10
I0
sg11
I01
sg12
I00
sba(iRoom.Tile.Wall_tile
Wall
p840
(dp841
g4
I1
sg5
g6
sg7
I12
sg8
I16
sg9
I00
sg10
I0
sg11
I00
sg12
I01
sba(iRoom.Tile.Tile
Tile
p842
(dp843
g4
I1
sg5
(I235
I202
I170
tp844
sg7
I12
sg8
I17
sg9
I00
sg10
I0
sg11
I01
sg12
I00
sba(iRoom.Tile.Wall_tile
Wall
p845
(dp846
g4
I1
sg5
g6
sg7
I12
sg8
I18
sg9
I00
sg10
I0
sg11
I00
sg12
I01
sba(iRoom.Tile.Tile
Tile
p847
(dp848
g4
I1
sg5
(I234
I198
I179
tp849
sg7
I12
sg8
I19
sg9
I00
sg10
I0
sg11
I01
sg12
I00
sba(iRoom.Tile.Wall_tile
Wall
p850
(dp851
g4
I1
sg5
g6
sg7
I12
sg8
I20
sg9
I00
sg10
I0
sg11
I00
sg12
I01
sba(iRoom.Tile.Wall_tile
Wall
p852
(dp853
g4
I1
sg5
g6
sg7
I12
sg8
I21
sg9
I00
sg10
I0
sg11
I00
sg12
I01
sba(iRoom.Tile.Wall_tile
Wall
p854
(dp855
g4
I1
sg5
g6
sg7
I12
sg8
I22
sg9
I00
sg10
I0
sg11
I00
sg12
I01
sba(iRoom.Tile.Wall_tile
Wall
p856
(dp857
g4
I1
sg5
g6
sg7
I12
sg8
I23
sg9
I00
sg10
I0
sg11
I00
sg12
I01
sbaa(lp858
(iRoom.Tile.Wall_tile
Wall
p859
(dp860
g4
I1
sg5
g6
sg7
I13
sg8
I0
sg9
I00
sg10
I0
sg11
I00
sg12
I01
sba(iRoom.Tile.Tile
Tile
p861
(dp862
g4
I1
sg5
(I241
I199
I176
tp863
sg7
I13
sg8
I1
sg9
I00
sg10
I0
sg11
I01
sg12
I00
sba(iRoom.Tile.Tile
Tile
p864
(dp865
g4
I1
sg5
(I234
I201
I171
tp866
sg7
I13
sg8
I2
sg9
I00
sg10
I0
sg11
I01
sg12
I00
sba(iRoom.Tile.Tile
Tile
p867
(dp868
g4
I1
sg5
(I238
I203
I171
tp869
sg7
I13
sg8
I3
sg9
I00
sg10
I0
sg11
I01
sg12
I00
sba(iRoom.Tile.Tile
Tile
p870
(dp871
g4
I1
sg5
(I239
I202
I173
tp872
sg7
I13
sg8
I4
sg9
I00
sg10
I0
sg11
I01
sg12
I00
sba(iRoom.Tile.Tile
Tile
p873
(dp874
g4
I1
sg5
(I232
I205
I176
tp875
sg7
I13
sg8
I5
sg9
I00
sg10
I0
sg11
I01
sg12
I00
sba(iRoom.Tile.Tile
Tile
p876
(dp877
g4
I1
sg5
(I238
I198
I174
tp878
sg7
I13
sg8
I6
sg9
I00
sg10
I0
sg11
I01
sg12
I00
sba(iRoom.Tile.Tile
Tile
p879
(dp880
g4
I1
sg5
(I236
I202
I178
tp881
sg7
I13
sg8
I7
sg9
I00
sg10
I0
sg11
I01
sg12
I00
sba(iRoom.Tile.Tile
Tile
p882
(dp883
g4
I1
sg5
(I241
I198
I177
tp884
sg7
I13
sg8
I8
sg9
I00
sg10
I0
sg11
I01
sg12
I00
sba(iRoom.Tile.Tile
Tile
p885
(dp886
g4
I1
sg5
(I239
I196
I174
tp887
sg7
I13
sg8
I9
sg9
I00
sg10
I0
sg11
I01
sg12
I00
sba(iRoom.Tile.Tile
Tile
p888
(dp889
g4
I1
sg5
(I240
I201
I178
tp890
sg7
I13
sg8
I10
sg9
I00
sg10
I0
sg11
I01
sg12
I00
sba(iRoom.Tile.Wall_tile
Wall
p891
(dp892
g4
I1
sg5
g6
sg7
I13
sg8
I11
sg9
I00
sg10
I0
sg11
I00
sg12
I01
sba(iRoom.Tile.Tile
Tile
p893
(dp894
g4
I1
sg5
(I235
I196
I178
tp895
sg7
I13
sg8
I12
sg9
I00
sg10
I0
sg11
I01
sg12
I00
sba(iRoom.Tile.Tile
Tile
p896
(dp897
g4
I1
sg5
(I240
I200
I177
tp898
sg7
I13
sg8
I13
sg9
I00
sg10
I0
sg11
I01
sg12
I00
sba(iRoom.Tile.Tile
Tile
p899
(dp900
g4
I1
sg5
(I233
I204
I176
tp901
sg7
I13
sg8
I14
sg9
I00
sg10
I0
sg11
I01
sg12
I00
sba(iRoom.Tile.Wall_tile
Wall
p902
(dp903
g4
I1
sg5
g6
sg7
I13
sg8
I15
sg9
I00
sg10
I0
sg11
I00
sg12
I01
sba(iRoom.Tile.Tile
Tile
p904
(dp905
g4
I1
sg5
(I240
I199
I170
tp906
sg7
I13
sg8
I16
sg9
I00
sg10
I0
sg11
I01
sg12
I00
sba(iRoom.Tile.Tile
Tile
p907
(dp908
g4
I1
sg5
(I240
I205
I178
tp909
sg7
I13
sg8
I17
sg9
I00
sg10
I0
sg11
I01
sg12
I00
sba(iRoom.Tile.Tile
Tile
p910
(dp911
g4
I1
sg5
(I236
I202
I178
tp912
sg7
I13
sg8
I18
sg9
I00
sg10
I0
sg11
I01
sg12
I00
sba(iRoom.Tile.Wall_tile
Wall
p913
(dp914
g4
I1
sg5
g6
sg7
I13
sg8
I19
sg9
I00
sg10
I0
sg11
I00
sg12
I01
sba(iRoom.Tile.Tile
Tile
p915
(dp916
g4
I1
sg5
(I234
I198
I172
tp917
sg7
I13
sg8
I20
sg9
I00
sg10
I0
sg11
I01
sg12
I00
sba(iRoom.Tile.Tile
Tile
p918
(dp919
g4
I1
sg5
(I240
I202
I176
tp920
sg7
I13
sg8
I21
sg9
I00
sg10
I0
sg11
I01
sg12
I00
sba(iRoom.Tile.Wall_tile
Wall
p921
(dp922
g4
I1
sg5
g6
sg7
I13
sg8
I22
sg9
I00
sg10
I0
sg11
I00
sg12
I01
sba(iRoom.Tile.Wall_tile
Wall
p923
(dp924
g4
I1
sg5
g6
sg7
I13
sg8
I23
sg9
I00
sg10
I0
sg11
I00
sg12
I01
sbaa(lp925
(iRoom.Tile.Wall_tile
Wall
p926
(dp927
g4
I1
sg5
g6
sg7
I14
sg8
I0
sg9
I00
sg10
I0
sg11
I00
sg12
I01
sba(iRoom.Tile.Tile
Tile
p928
(dp929
g4
I1
sg5
(I237
I204
I170
tp930
sg7
I14
sg8
I1
sg9
I00
sg10
I0
sg11
I01
sg12
I00
sba(iRoom.Tile.Tile
Tile
p931
(dp932
g4
I1
sg5
(I239
I202
I173
tp933
sg7
I14
sg8
I2
sg9
I00
sg10
I0
sg11
I01
sg12
I00
sba(iRoom.Tile.Tile
Tile
p934
(dp935
g4
I1
sg5
(I240
I201
I175
tp936
sg7
I14
sg8
I3
sg9
I00
sg10
I0
sg11
I01
sg12
I00
sba(iRoom.Tile.Tile
Tile
p937
(dp938
g4
I1
sg5
(I239
I202
I172
tp939
sg7
I14
sg8
I4
sg9
I00
sg10
I0
sg11
I01
sg12
I00
sba(iRoom.Tile.Tile
Tile
p940
(dp941
g4
I1
sg5
(I236
I200
I173
tp942
sg7
I14
sg8
I5
sg9
I00
sg10
I0
sg11
I01
sg12
I00
sba(iRoom.Tile.Tile
Tile
p943
(dp944
g4
I1
sg5
(I236
I198
I177
tp945
sg7
I14
sg8
I6
sg9
I00
sg10
I0
sg11
I01
sg12
I00
sba(iRoom.Tile.Tile
Tile
p946
(dp947
g4
I1
sg5
(I235
I197
I177
tp948
sg7
I14
sg8
I7
sg9
I00
sg10
I0
sg11
I01
sg12
I00
sba(iRoom.Tile.Tile
Tile
p949
(dp950
g4
I1
sg5
(I238
I203
I172
tp951
sg7
I14
sg8
I8
sg9
I00
sg10
I0
sg11
I01
sg12
I00
sba(iRoom.Tile.Tile
Tile
p952
(dp953
g4
I1
sg5
(I240
I203
I176
tp954
sg7
I14
sg8
I9
sg9
I00
sg10
I0
sg11
I01
sg12
I00
sba(iRoom.Tile.Wall_tile
Wall
p955
(dp956
g4
I1
sg5
g6
sg7
I14
sg8
I10
sg9
I00
sg10
I0
sg11
I00
sg12
I01
sba(iRoom.Tile.Tile
Tile
p957
(dp958
g4
I1
sg5
(I236
I204
I170
tp959
sg7
I14
sg8
I11
sg9
I00
sg10
I0
sg11
I01
sg12
I00
sba(iRoom.Tile.Wall_tile
Wall
p960
(dp961
g4
I1
sg5
g6
sg7
I14
sg8
I12
sg9
I00
sg10
I0
sg11
I00
sg12
I01
sba(iRoom.Tile.Tile
Tile
p962
(dp963
g4
I1
sg5
(I236
I197
I172
tp964
sg7
I14
sg8
I13
sg9
I00
sg10
I0
sg11
I01
sg12
I00
sba(iRoom.Tile.Tile
Tile
p965
(dp966
g4
I1
sg5
(I233
I204
I179
tp967
sg7
I14
sg8
I14
sg9
I00
sg10
I0
sg11
I01
sg12
I00
sba(iRoom.Tile.Wall_tile
Wall
p968
(dp969
g4
I1
sg5
g6
sg7
I14
sg8
I15
sg9
I00
sg10
I0
sg11
I00
sg12
I01
sba(iRoom.Tile.Tile
Tile
p970
(dp971
g4
I1
sg5
(I241
I202
I175
tp972
sg7
I14
sg8
I16
sg9
I00
sg10
I0
sg11
I01
sg12
I00
sba(iRoom.Tile.Tile
Tile
p973
(dp974
g4
I1
sg5
(I241
I200
I173
tp975
sg7
I14
sg8
I17
sg9
I00
sg10
I0
sg11
I01
sg12
I00
sba(iRoom.Tile.Tile
Tile
p976
(dp977
g4
I1
sg5
(I239
I204
I179
tp978
sg7
I14
sg8
I18
sg9
I00
sg10
I0
sg11
I01
sg12
I00
sba(iRoom.Tile.Tile
Tile
p979
(dp980
g4
I1
sg5
(I240
I196
I172
tp981
sg7
I14
sg8
I19
sg9
I00
sg10
I0
sg11
I01
sg12
I00
sba(iRoom.Tile.Tile
Tile
p982
(dp983
g4
I1
sg5
(I235
I198
I171
tp984
sg7
I14
sg8
I20
sg9
I00
sg10
I0
sg11
I01
sg12
I00
sba(iRoom.Tile.Wall_tile
Wall
p985
(dp986
g4
I1
sg5
g6
sg7
I14
sg8
I21
sg9
I00
sg10
I0
sg11
I00
sg12
I01
sba(iRoom.Tile.Tile
Tile
p987
(dp988
g4
I1
sg5
(I236
I203
I177
tp989
sg7
I14
sg8
I22
sg9
I00
sg10
I0
sg11
I01
sg12
I00
sba(iRoom.Tile.Wall_tile
Wall
p990
(dp991
g4
I1
sg5
g6
sg7
I14
sg8
I23
sg9
I00
sg10
I0
sg11
I00
sg12
I01
sbaa(lp992
(iRoom.Tile.Wall_tile
Wall
p993
(dp994
g4
I1
sg5
g6
sg7
I15
sg8
I0
sg9
I00
sg10
I0
sg11
I00
sg12
I01
sba(iRoom.Tile.Tile
Tile
p995
(dp996
g4
I1
sg5
(I232
I199
I171
tp997
sg7
I15
sg8
I1
sg9
I00
sg10
I0
sg11
I01
sg12
I00
sba(iRoom.Tile.Tile
Tile
p998
(dp999
g4
I1
sg5
(I240
I197
I170
tp1000
sg7
I15
sg8
I2
sg9
I00
sg10
I0
sg11
I01
sg12
I00
sba(iRoom.Tile.Tile
Tile
p1001
(dp1002
g4
I1
sg5
(I234
I200
I176
tp1003
sg7
I15
sg8
I3
sg9
I00
sg10
I0
sg11
I01
sg12
I00
sba(iRoom.Tile.Wall_tile
Wall
p1004
(dp1005
g4
I1
sg5
g6
sg7
I15
sg8
I4
sg9
I00
sg10
I0
sg11
I00
sg12
I01
sba(iRoom.Tile.Tile
Tile
p1006
(dp1007
g4
I1
sg5
(I240
I204
I177
tp1008
sg7
I15
sg8
I5
sg9
I00
sg10
I0
sg11
I01
sg12
I00
sba(iRoom.Tile.Tile
Tile
p1009
(dp1010
g4
I1
sg5
(I238
I200
I170
tp1011
sg7
I15
sg8
I6
sg9
I00
sg10
I0
sg11
I01
sg12
I00
sba(iRoom.Tile.Wall_tile
Wall
p1012
(dp1013
g4
I1
sg5
g6
sg7
I15
sg8
I7
sg9
I00
sg10
I0
sg11
I00
sg12
I01
sba(iRoom.Tile.Tile
Tile
p1014
(dp1015
g4
I1
sg5
(I238
I203
I174
tp1016
sg7
I15
sg8
I8
sg9
I00
sg10
I0
sg11
I01
sg12
I00
sba(iRoom.Tile.Tile
Tile
p1017
(dp1018
g4
I1
sg5
(I239
I202
I174
tp1019
sg7
I15
sg8
I9
sg9
I00
sg10
I0
sg11
I01
sg12
I00
sba(iRoom.Tile.Tile
Tile
p1020
(dp1021
g4
I1
sg5
(I240
I197
I171
tp1022
sg7
I15
sg8
I10
sg9
I00
sg10
I0
sg11
I01
sg12
I00
sba(iRoom.Tile.Tile
Tile
p1023
(dp1024
g4
I1
sg5
(I239
I200
I176
tp1025
sg7
I15
sg8
I11
sg9
I00
sg10
I0
sg11
I01
sg12
I00
sba(iRoom.Tile.Tile
Tile
p1026
(dp1027
g4
I1
sg5
(I241
I202
I177
tp1028
sg7
I15
sg8
I12
sg9
I00
sg10
I0
sg11
I01
sg12
I00
sba(iRoom.Tile.Tile
Tile
p1029
(dp1030
g4
I1
sg5
(I233
I200
I174
tp1031
sg7
I15
sg8
I13
sg9
I00
sg10
I0
sg11
I01
sg12
I00
sba(iRoom.Tile.Tile
Tile
p1032
(dp1033
g4
I1
sg5
(I240
I198
I178
tp1034
sg7
I15
sg8
I14
sg9
I00
sg10
I0
sg11
I01
sg12
I00
sba(iRoom.Tile.Tile
Tile
p1035
(dp1036
g4
I1
sg5
(I234
I202
I172
tp1037
sg7
I15
sg8
I15
sg9
I00
sg10
I0
sg11
I01
sg12
I00
sba(iRoom.Tile.Wall_tile
Wall
p1038
(dp1039
g4
I1
sg5
g6
sg7
I15
sg8
I16
sg9
I00
sg10
I0
sg11
I00
sg12
I01
sba(iRoom.Tile.Wall_tile
Wall
p1040
(dp1041
g4
I1
sg5
g6
sg7
I15
sg8
I17
sg9
I00
sg10
I0
sg11
I00
sg12
I01
sba(iRoom.Tile.Tile
Tile
p1042
(dp1043
g4
I1
sg5
(I233
I204
I178
tp1044
sg7
I15
sg8
I18
sg9
I00
sg10
I0
sg11
I01
sg12
I00
sba(iRoom.Tile.Tile
Tile
p1045
(dp1046
g4
I1
sg5
(I240
I202
I178
tp1047
sg7
I15
sg8
I19
sg9
I00
sg10
I0
sg11
I01
sg12
I00
sba(iRoom.Tile.Tile
Tile
p1048
(dp1049
g4
I1
sg5
(I232
I197
I179
tp1050
sg7
I15
sg8
I20
sg9
I00
sg10
I0
sg11
I01
sg12
I00
sba(iRoom.Tile.Wall_tile
Wall
p1051
(dp1052
g4
I1
sg5
g6
sg7
I15
sg8
I21
sg9
I00
sg10
I0
sg11
I00
sg12
I01
sba(iRoom.Tile.Tile
Tile
p1053
(dp1054
g4
I1
sg5
(I233
I198
I177
tp1055
sg7
I15
sg8
I22
sg9
I00
sg10
I0
sg11
I01
sg12
I00
sba(iRoom.Tile.Wall_tile
Wall
p1056
(dp1057
g4
I1
sg5
g6
sg7
I15
sg8
I23
sg9
I00
sg10
I0
sg11
I00
sg12
I01
sbaa(lp1058
(iRoom.Tile.Wall_tile
Wall
p1059
(dp1060
g4
I1
sg5
g6
sg7
I16
sg8
I0
sg9
I00
sg10
I0
sg11
I00
sg12
I01
sba(iRoom.Tile.Tile
Tile
p1061
(dp1062
g4
I1
sg5
(I241
I197
I178
tp1063
sg7
I16
sg8
I1
sg9
I00
sg10
I0
sg11
I01
sg12
I00
sba(iRoom.Tile.Tile
Tile
p1064
(dp1065
g4
I1
sg5
(I241
I196
I176
tp1066
sg7
I16
sg8
I2
sg9
I00
sg10
I0
sg11
I01
sg12
I00
sba(iRoom.Tile.Tile
Tile
p1067
(dp1068
g4
I1
sg5
(I240
I197
I176
tp1069
sg7
I16
sg8
I3
sg9
I00
sg10
I0
sg11
I01
sg12
I00
sba(iRoom.Tile.Tile
Tile
p1070
(dp1071
g4
I1
sg5
(I241
I199
I178
tp1072
sg7
I16
sg8
I4
sg9
I00
sg10
I0
sg11
I01
sg12
I00
sba(iRoom.Tile.Wall_tile
Wall
p1073
(dp1074
g4
I1
sg5
g6
sg7
I16
sg8
I5
sg9
I00
sg10
I0
sg11
I00
sg12
I01
sba(iRoom.Tile.Tile
Tile
p1075
(dp1076
g4
I1
sg5
(I235
I203
I176
tp1077
sg7
I16
sg8
I6
sg9
I00
sg10
I0
sg11
I01
sg12
I00
sba(iRoom.Tile.Tile
Tile
p1078
(dp1079
g4
I1
sg5
(I237
I204
I178
tp1080
sg7
I16
sg8
I7
sg9
I00
sg10
I0
sg11
I01
sg12
I00
sba(iRoom.Tile.Tile
Tile
p1081
(dp1082
g4
I1
sg5
(I241
I201
I171
tp1083
sg7
I16
sg8
I8
sg9
I00
sg10
I0
sg11
I01
sg12
I00
sba(iRoom.Tile.Tile
Tile
p1084
(dp1085
g4
I1
sg5
(I238
I197
I174
tp1086
sg7
I16
sg8
I9
sg9
I00
sg10
I0
sg11
I01
sg12
I00
sba(iRoom.Tile.Tile
Tile
p1087
(dp1088
g4
I1
sg5
(I235
I202
I170
tp1089
sg7
I16
sg8
I10
sg9
I00
sg10
I0
sg11
I01
sg12
I00
sba(iRoom.Tile.Tile
Tile
p1090
(dp1091
g4
I1
sg5
(I233
I202
I173
tp1092
sg7
I16
sg8
I11
sg9
I00
sg10
I0
sg11
I01
sg12
I00
sba(iRoom.Tile.Tile
Tile
p1093
(dp1094
g4
I1
sg5
(I234
I204
I174
tp1095
sg7
I16
sg8
I12
sg9
I00
sg10
I0
sg11
I01
sg12
I00
sba(iRoom.Tile.Tile
Tile
p1096
(dp1097
g4
I1
sg5
(I240
I204
I170
tp1098
sg7
I16
sg8
I13
sg9
I00
sg10
I0
sg11
I01
sg12
I00
sba(iRoom.Tile.Tile
Tile
p1099
(dp1100
g4
I1
sg5
(I236
I201
I174
tp1101
sg7
I16
sg8
I14
sg9
I00
sg10
I0
sg11
I01
sg12
I00
sba(iRoom.Tile.Wall_tile
Wall
p1102
(dp1103
g4
I1
sg5
g6
sg7
I16
sg8
I15
sg9
I00
sg10
I0
sg11
I00
sg12
I01
sba(iRoom.Tile.Tile
Tile
p1104
(dp1105
g4
I1
sg5
(I236
I205
I172
tp1106
sg7
I16
sg8
I16
sg9
I00
sg10
I0
sg11
I01
sg12
I00
sba(iRoom.Tile.Tile
Tile
p1107
(dp1108
g4
I1
sg5
(I233
I202
I173
tp1109
sg7
I16
sg8
I17
sg9
I00
sg10
I0
sg11
I01
sg12
I00
sba(iRoom.Tile.Tile
Tile
p1110
(dp1111
g4
I1
sg5
(I235
I201
I179
tp1112
sg7
I16
sg8
I18
sg9
I00
sg10
I0
sg11
I01
sg12
I00
sba(iRoom.Tile.Tile
Tile
p1113
(dp1114
g4
I1
sg5
(I238
I204
I178
tp1115
sg7
I16
sg8
I19
sg9
I00
sg10
I0
sg11
I01
sg12
I00
sba(iRoom.Tile.Tile
Tile
p1116
(dp1117
g4
I1
sg5
(I238
I203
I178
tp1118
sg7
I16
sg8
I20
sg9
I00
sg10
I0
sg11
I01
sg12
I00
sba(iRoom.Tile.Tile
Tile
p1119
(dp1120
g4
I1
sg5
(I235
I200
I177
tp1121
sg7
I16
sg8
I21
sg9
I00
sg10
I0
sg11
I01
sg12
I00
sba(iRoom.Tile.Wall_tile
Wall
p1122
(dp1123
g4
I1
sg5
g6
sg7
I16
sg8
I22
sg9
I00
sg10
I0
sg11
I00
sg12
I01
sba(iRoom.Tile.Wall_tile
Wall
p1124
(dp1125
g4
I1
sg5
g6
sg7
I16
sg8
I23
sg9
I00
sg10
I0
sg11
I00
sg12
I01
sbaa(lp1126
(iRoom.Tile.Wall_tile
Wall
p1127
(dp1128
g4
I1
sg5
g6
sg7
I17
sg8
I0
sg9
I00
sg10
I0
sg11
I00
sg12
I01
sba(iRoom.Tile.Tile
Tile
p1129
(dp1130
g4
I1
sg5
(I233
I203
I178
tp1131
sg7
I17
sg8
I1
sg9
I00
sg10
I0
sg11
I01
sg12
I00
sba(iRoom.Tile.Tile
Tile
p1132
(dp1133
g4
I1
sg5
(I238
I198
I178
tp1134
sg7
I17
sg8
I2
sg9
I00
sg10
I0
sg11
I01
sg12
I00
sba(iRoom.Tile.Tile
Tile
p1135
(dp1136
g4
I1
sg5
(I235
I202
I171
tp1137
sg7
I17
sg8
I3
sg9
I00
sg10
I0
sg11
I01
sg12
I00
sba(iRoom.Tile.Tile
Tile
p1138
(dp1139
g4
I1
sg5
(I234
I196
I171
tp1140
sg7
I17
sg8
I4
sg9
I00
sg10
I0
sg11
I01
sg12
I00
sba(iRoom.Tile.Tile
Tile
p1141
(dp1142
g4
I1
sg5
(I237
I200
I178
tp1143
sg7
I17
sg8
I5
sg9
I00
sg10
I0
sg11
I01
sg12
I00
sba(iRoom.Tile.Tile
Tile
p1144
(dp1145
g4
I1
sg5
(I235
I202
I178
tp1146
sg7
I17
sg8
I6
sg9
I00
sg10
I0
sg11
I01
sg12
I00
sba(iRoom.Tile.Wall_tile
Wall
p1147
(dp1148
g4
I1
sg5
g6
sg7
I17
sg8
I7
sg9
I00
sg10
I0
sg11
I00
sg12
I01
sba(iRoom.Tile.Tile
Tile
p1149
(dp1150
g4
I1
sg5
(I241
I200
I173
tp1151
sg7
I17
sg8
I8
sg9
I00
sg10
I0
sg11
I01
sg12
I00
sba(iRoom.Tile.Tile
Tile
p1152
(dp1153
g4
I1
sg5
(I237
I196
I177
tp1154
sg7
I17
sg8
I9
sg9
I00
sg10
I0
sg11
I01
sg12
I00
sba(iRoom.Tile.Wall_tile
Wall
p1155
(dp1156
g4
I1
sg5
g6
sg7
I17
sg8
I10
sg9
I00
sg10
I0
sg11
I00
sg12
I01
sba(iRoom.Tile.Tile
Tile
p1157
(dp1158
g4
I1
sg5
(I239
I196
I177
tp1159
sg7
I17
sg8
I11
sg9
I00
sg10
I0
sg11
I01
sg12
I00
sba(iRoom.Tile.Wall_tile
Wall
p1160
(dp1161
g4
I1
sg5
g6
sg7
I17
sg8
I12
sg9
I00
sg10
I0
sg11
I00
sg12
I01
sba(iRoom.Tile.Tile
Tile
p1162
(dp1163
g4
I1
sg5
(I233
I204
I179
tp1164
sg7
I17
sg8
I13
sg9
I00
sg10
I0
sg11
I01
sg12
I00
sba(iRoom.Tile.Tile
Tile
p1165
(dp1166
g4
I1
sg5
(I237
I200
I178
tp1167
sg7
I17
sg8
I14
sg9
I00
sg10
I0
sg11
I01
sg12
I00
sba(iRoom.Tile.Wall_tile
Wall
p1168
(dp1169
g4
I1
sg5
g6
sg7
I17
sg8
I15
sg9
I00
sg10
I0
sg11
I00
sg12
I01
sba(iRoom.Tile.Tile
Tile
p1170
(dp1171
g4
I1
sg5
(I238
I196
I170
tp1172
sg7
I17
sg8
I16
sg9
I00
sg10
I0
sg11
I01
sg12
I00
sba(iRoom.Tile.Tile
Tile
p1173
(dp1174
g4
I1
sg5
(I236
I197
I172
tp1175
sg7
I17
sg8
I17
sg9
I00
sg10
I0
sg11
I01
sg12
I00
sba(iRoom.Tile.Tile
Tile
p1176
(dp1177
g4
I1
sg5
(I234
I202
I174
tp1178
sg7
I17
sg8
I18
sg9
I00
sg10
I0
sg11
I01
sg12
I00
sba(iRoom.Tile.Tile
Tile
p1179
(dp1180
g4
I1
sg5
(I235
I204
I174
tp1181
sg7
I17
sg8
I19
sg9
I00
sg10
I0
sg11
I01
sg12
I00
sba(iRoom.Tile.Tile
Tile
p1182
(dp1183
g4
I1
sg5
(I236
I199
I175
tp1184
sg7
I17
sg8
I20
sg9
I00
sg10
I0
sg11
I01
sg12
I00
sba(iRoom.Tile.Wall_tile
Wall
p1185
(dp1186
g4
I1
sg5
g6
sg7
I17
sg8
I21
sg9
I00
sg10
I0
sg11
I00
sg12
I01
sba(iRoom.Tile.Wall_tile
Wall
p1187
(dp1188
g4
I1
sg5
g6
sg7
I17
sg8
I22
sg9
I00
sg10
I0
sg11
I00
sg12
I01
sba(iRoom.Tile.Wall_tile
Wall
p1189
(dp1190
g4
I1
sg5
g6
sg7
I17
sg8
I23
sg9
I00
sg10
I0
sg11
I00
sg12
I01
sbaa(lp1191
(iRoom.Tile.Wall_tile
Wall
p1192
(dp1193
g4
I1
sg5
g6
sg7
I18
sg8
I0
sg9
I00
sg10
I0
sg11
I00
sg12
I01
sba(iRoom.Tile.Tile
Tile
p1194
(dp1195
g4
I1
sg5
(I236
I204
I171
tp1196
sg7
I18
sg8
I1
sg9
I00
sg10
I0
sg11
I01
sg12
I00
sba(iRoom.Tile.Tile
Tile
p1197
(dp1198
g4
I1
sg5
(I238
I200
I179
tp1199
sg7
I18
sg8
I2
sg9
I00
sg10
I0
sg11
I01
sg12
I00
sba(iRoom.Tile.Tile
Tile
p1200
(dp1201
g4
I1
sg5
(I241
I200
I177
tp1202
sg7
I18
sg8
I3
sg9
I00
sg10
I0
sg11
I01
sg12
I00
sba(iRoom.Tile.Tile
Tile
p1203
(dp1204
g4
I1
sg5
(I236
I198
I171
tp1205
sg7
I18
sg8
I4
sg9
I00
sg10
I0
sg11
I01
sg12
I00
sba(iRoom.Tile.Tile
Tile
p1206
(dp1207
g4
I1
sg5
(I240
I196
I172
tp1208
sg7
I18
sg8
I5
sg9
I00
sg10
I0
sg11
I01
sg12
I00
sba(iRoom.Tile.Tile
Tile
p1209
(dp1210
g4
I1
sg5
(I239
I204
I178
tp1211
sg7
I18
sg8
I6
sg9
I00
sg10
I0
sg11
I01
sg12
I00
sba(iRoom.Tile.Wall_tile
Wall
p1212
(dp1213
g4
I1
sg5
g6
sg7
I18
sg8
I7
sg9
I00
sg10
I0
sg11
I00
sg12
I01
sba(iRoom.Tile.Tile
Tile
p1214
(dp1215
g4
I1
sg5
(I236
I205
I176
tp1216
sg7
I18
sg8
I8
sg9
I00
sg10
I0
sg11
I01
sg12
I00
sba(iRoom.Tile.Tile
Tile
p1217
(dp1218
g4
I1
sg5
(I236
I196
I174
tp1219
sg7
I18
sg8
I9
sg9
I00
sg10
I0
sg11
I01
sg12
I00
sba(iRoom.Tile.Wall_tile
Wall
p1220
(dp1221
g4
I1
sg5
g6
sg7
I18
sg8
I10
sg9
I00
sg10
I0
sg11
I00
sg12
I01
sba(iRoom.Tile.Tile
Tile
p1222
(dp1223
g4
I1
sg5
(I239
I203
I170
tp1224
sg7
I18
sg8
I11
sg9
I00
sg10
I0
sg11
I01
sg12
I00
sba(iRoom.Tile.Wall_tile
Wall
p1225
(dp1226
g4
I1
sg5
g6
sg7
I18
sg8
I12
sg9
I00
sg10
I0
sg11
I00
sg12
I01
sba(iRoom.Tile.Wall_tile
Wall
p1227
(dp1228
g4
I1
sg5
g6
sg7
I18
sg8
I13
sg9
I00
sg10
I0
sg11
I00
sg12
I01
sba(iRoom.Tile.Tile
Tile
p1229
(dp1230
g4
I1
sg5
(I232
I205
I177
tp1231
sg7
I18
sg8
I14
sg9
I00
sg10
I0
sg11
I01
sg12
I00
sba(iRoom.Tile.Tile
Tile
p1232
(dp1233
g4
I1
sg5
(I235
I201
I174
tp1234
sg7
I18
sg8
I15
sg9
I00
sg10
I0
sg11
I01
sg12
I00
sba(iRoom.Tile.Tile
Tile
p1235
(dp1236
g4
I1
sg5
(I232
I196
I170
tp1237
sg7
I18
sg8
I16
sg9
I00
sg10
I0
sg11
I01
sg12
I00
sba(iRoom.Tile.Tile
Tile
p1238
(dp1239
g4
I1
sg5
(I241
I204
I175
tp1240
sg7
I18
sg8
I17
sg9
I00
sg10
I0
sg11
I01
sg12
I00
sba(iRoom.Tile.Wall_tile
Wall
p1241
(dp1242
g4
I1
sg5
g6
sg7
I18
sg8
I18
sg9
I00
sg10
I0
sg11
I00
sg12
I01
sba(iRoom.Tile.Tile
Tile
p1243
(dp1244
g4
I1
sg5
(I232
I199
I174
tp1245
sg7
I18
sg8
I19
sg9
I00
sg10
I0
sg11
I01
sg12
I00
sba(iRoom.Tile.Tile
Tile
p1246
(dp1247
g4
I1
sg5
(I232
I202
I173
tp1248
sg7
I18
sg8
I20
sg9
I00
sg10
I0
sg11
I01
sg12
I00
sba(iRoom.Tile.Tile
Tile
p1249
(dp1250
g4
I1
sg5
(I237
I200
I172
tp1251
sg7
I18
sg8
I21
sg9
I00
sg10
I0
sg11
I01
sg12
I00
sba(iRoom.Tile.Tile
Tile
p1252
(dp1253
g4
I1
sg5
(I235
I202
I170
tp1254
sg7
I18
sg8
I22
sg9
I00
sg10
I0
sg11
I01
sg12
I00
sba(iRoom.Tile.Wall_tile
Wall
p1255
(dp1256
g4
I1
sg5
g6
sg7
I18
sg8
I23
sg9
I00
sg10
I0
sg11
I00
sg12
I01
sbaa(lp1257
(iRoom.Tile.Wall_tile
Wall
p1258
(dp1259
g4
I1
sg5
g6
sg7
I19
sg8
I0
sg9
I00
sg10
I0
sg11
I00
sg12
I01
sba(iRoom.Tile.Tile
Tile
p1260
(dp1261
g4
I1
sg5
(I239
I203
I172
tp1262
sg7
I19
sg8
I1
sg9
I00
sg10
I0
sg11
I01
sg12
I00
sba(iRoom.Tile.Tile
Tile
p1263
(dp1264
g4
I1
sg5
(I239
I196
I173
tp1265
sg7
I19
sg8
I2
sg9
I00
sg10
I0
sg11
I01
sg12
I00
sba(iRoom.Tile.Tile
Tile
p1266
(dp1267
g4
I1
sg5
(I240
I203
I174
tp1268
sg7
I19
sg8
I3
sg9
I00
sg10
I0
sg11
I01
sg12
I00
sba(iRoom.Tile.Tile
Tile
p1269
(dp1270
g4
I1
sg5
(I235
I202
I171
tp1271
sg7
I19
sg8
I4
sg9
I00
sg10
I0
sg11
I01
sg12
I00
sba(iRoom.Tile.Wall_tile
Wall
p1272
(dp1273
g4
I1
sg5
g6
sg7
I19
sg8
I5
sg9
I00
sg10
I0
sg11
I00
sg12
I01
sba(iRoom.Tile.Tile
Tile
p1274
(dp1275
g4
I1
sg5
(I237
I196
I171
tp1276
sg7
I19
sg8
I6
sg9
I00
sg10
I0
sg11
I01
sg12
I00
sba(iRoom.Tile.Wall_tile
Wall
p1277
(dp1278
g4
I1
sg5
g6
sg7
I19
sg8
I7
sg9
I00
sg10
I0
sg11
I00
sg12
I01
sba(iRoom.Tile.Tile
Tile
p1279
(dp1280
g4
I1
sg5
(I240
I204
I172
tp1281
sg7
I19
sg8
I8
sg9
I00
sg10
I0
sg11
I01
sg12
I00
sba(iRoom.Tile.Tile
Tile
p1282
(dp1283
g4
I1
sg5
(I238
I205
I172
tp1284
sg7
I19
sg8
I9
sg9
I00
sg10
I0
sg11
I01
sg12
I00
sba(iRoom.Tile.Tile
Tile
p1285
(dp1286
g4
I1
sg5
(I236
I204
I175
tp1287
sg7
I19
sg8
I10
sg9
I00
sg10
I0
sg11
I01
sg12
I00
sba(iRoom.Tile.Tile
Tile
p1288
(dp1289
g4
I1
sg5
(I237
I202
I178
tp1290
sg7
I19
sg8
I11
sg9
I00
sg10
I0
sg11
I01
sg12
I00
sba(iRoom.Tile.Tile
Tile
p1291
(dp1292
g4
I1
sg5
(I241
I205
I172
tp1293
sg7
I19
sg8
I12
sg9
I00
sg10
I0
sg11
I01
sg12
I00
sba(iRoom.Tile.Tile
Tile
p1294
(dp1295
g4
I1
sg5
(I237
I201
I171
tp1296
sg7
I19
sg8
I13
sg9
I00
sg10
I0
sg11
I01
sg12
I00
sba(iRoom.Tile.Tile
Tile
p1297
(dp1298
g4
I1
sg5
(I232
I196
I179
tp1299
sg7
I19
sg8
I14
sg9
I00
sg10
I0
sg11
I01
sg12
I00
sba(iRoom.Tile.Wall_tile
Wall
p1300
(dp1301
g4
I1
sg5
g6
sg7
I19
sg8
I15
sg9
I00
sg10
I0
sg11
I00
sg12
I01
sba(iRoom.Tile.Tile
Tile
p1302
(dp1303
g4
I1
sg5
(I241
I205
I177
tp1304
sg7
I19
sg8
I16
sg9
I00
sg10
I0
sg11
I01
sg12
I00
sba(iRoom.Tile.Tile
Tile
p1305
(dp1306
g4
I1
sg5
(I241
I199
I171
tp1307
sg7
I19
sg8
I17
sg9
I00
sg10
I0
sg11
I01
sg12
I00
sba(iRoom.Tile.Wall_tile
Wall
p1308
(dp1309
g4
I1
sg5
g6
sg7
I19
sg8
I18
sg9
I00
sg10
I0
sg11
I00
sg12
I01
sba(iRoom.Tile.Tile
Tile
p1310
(dp1311
g4
I1
sg5
(I239
I198
I175
tp1312
sg7
I19
sg8
I19
sg9
I00
sg10
I0
sg11
I01
sg12
I00
sba(iRoom.Tile.Wall_tile
Wall
p1313
(dp1314
g4
I1
sg5
g6
sg7
I19
sg8
I20
sg9
I00
sg10
I0
sg11
I00
sg12
I01
sba(iRoom.Tile.Tile
Tile
p1315
(dp1316
g4
I1
sg5
(I238
I198
I176
tp1317
sg7
I19
sg8
I21
sg9
I00
sg10
I0
sg11
I01
sg12
I00
sba(iRoom.Tile.Tile
Tile
p1318
(dp1319
g4
I1
sg5
(I234
I204
I173
tp1320
sg7
I19
sg8
I22
sg9
I00
sg10
I0
sg11
I01
sg12
I00
sba(iRoom.Tile.Wall_tile
Wall
p1321
(dp1322
g4
I1
sg5
g6
sg7
I19
sg8
I23
sg9
I00
sg10
I0
sg11
I00
sg12
I01
sbaa(lp1323
(iRoom.Tile.Wall_tile
Wall
p1324
(dp1325
g4
I1
sg5
g6
sg7
I20
sg8
I0
sg9
I00
sg10
I0
sg11
I00
sg12
I01
sba(iRoom.Tile.Wall_tile
Wall
p1326
(dp1327
g4
I1
sg5
g6
sg7
I20
sg8
I1
sg9
I00
sg10
I0
sg11
I00
sg12
I01
sba(iRoom.Tile.Wall_tile
Wall
p1328
(dp1329
g4
I1
sg5
g6
sg7
I20
sg8
I2
sg9
I00
sg10
I0
sg11
I00
sg12
I01
sba(iRoom.Tile.Wall_tile
Wall
p1330
(dp1331
g4
I1
sg5
g6
sg7
I20
sg8
I3
sg9
I00
sg10
I0
sg11
I00
sg12
I01
sba(iRoom.Tile.Wall_tile
Wall
p1332
(dp1333
g4
I1
sg5
g6
sg7
I20
sg8
I4
sg9
I00
sg10
I0
sg11
I00
sg12
I01
sba(iRoom.Tile.Tile
Tile
p1334
(dp1335
g4
I1
sg5
(I238
I197
I171
tp1336
sg7
I20
sg8
I5
sg9
I00
sg10
I0
sg11
I01
sg12
I00
sba(iRoom.Tile.Tile
Tile
p1337
(dp1338
g4
I1
sg5
(I235
I202
I177
tp1339
sg7
I20
sg8
I6
sg9
I00
sg10
I0
sg11
I01
sg12
I00
sba(iRoom.Tile.Wall_tile
Wall
p1340
(dp1341
g4
I1
sg5
g6
sg7
I20
sg8
I7
sg9
I00
sg10
I0
sg11
I00
sg12
I01
sba(iRoom.Tile.Tile
Tile
p1342
(dp1343
g4
I1
sg5
(I240
I201
I171
tp1344
sg7
I20
sg8
I8
sg9
I00
sg10
I0
sg11
I01
sg12
I00
sba(iRoom.Tile.Tile
Tile
p1345
(dp1346
g4
I1
sg5
(I240
I197
I177
tp1347
sg7
I20
sg8
I9
sg9
I00
sg10
I0
sg11
I01
sg12
I00
sba(iRoom.Tile.Tile
Tile
p1348
(dp1349
g4
I1
sg5
(I233
I205
I171
tp1350
sg7
I20
sg8
I10
sg9
I00
sg10
I0
sg11
I01
sg12
I00
sba(iRoom.Tile.Wall_tile
Wall
p1351
(dp1352
g4
I1
sg5
g6
sg7
I20
sg8
I11
sg9
I00
sg10
I0
sg11
I00
sg12
I01
sba(iRoom.Tile.Tile
Tile
p1353
(dp1354
g4
I1
sg5
(I238
I200
I173
tp1355
sg7
I20
sg8
I12
sg9
I00
sg10
I0
sg11
I01
sg12
I00
sba(iRoom.Tile.Tile
Tile
p1356
(dp1357
g4
I1
sg5
(I239
I199
I173
tp1358
sg7
I20
sg8
I13
sg9
I00
sg10
I0
sg11
I01
sg12
I00
sba(iRoom.Tile.Tile
Tile
p1359
(dp1360
g4
I1
sg5
(I240
I205
I171
tp1361
sg7
I20
sg8
I14
sg9
I00
sg10
I0
sg11
I01
sg12
I00
sba(iRoom.Tile.Wall_tile
Wall
p1362
(dp1363
g4
I1
sg5
g6
sg7
I20
sg8
I15
sg9
I00
sg10
I0
sg11
I00
sg12
I01
sba(iRoom.Tile.Wall_tile
Wall
p1364
(dp1365
g4
I1
sg5
g6
sg7
I20
sg8
I16
sg9
I00
sg10
I0
sg11
I00
sg12
I01
sba(iRoom.Tile.Tile
Tile
p1366
(dp1367
g4
I1
sg5
(I235
I203
I179
tp1368
sg7
I20
sg8
I17
sg9
I00
sg10
I0
sg11
I01
sg12
I00
sba(iRoom.Tile.Tile
Tile
p1369
(dp1370
g4
I1
sg5
(I233
I202
I171
tp1371
sg7
I20
sg8
I18
sg9
I00
sg10
I0
sg11
I01
sg12
I00
sba(iRoom.Tile.Tile
Tile
p1372
(dp1373
g4
I1
sg5
(I238
I200
I178
tp1374
sg7
I20
sg8
I19
sg9
I00
sg10
I0
sg11
I01
sg12
I00
sba(iRoom.Tile.Tile
Tile
p1375
(dp1376
g4
I1
sg5
(I233
I199
I173
tp1377
sg7
I20
sg8
I20
sg9
I00
sg10
I0
sg11
I01
sg12
I00
sba(iRoom.Tile.Tile
Tile
p1378
(dp1379
g4
I1
sg5
(I233
I200
I176
tp1380
sg7
I20
sg8
I21
sg9
I00
sg10
I0
sg11
I01
sg12
I00
sba(iRoom.Tile.Wall_tile
Wall
p1381
(dp1382
g4
I1
sg5
g6
sg7
I20
sg8
I22
sg9
I00
sg10
I0
sg11
I00
sg12
I01
sba(iRoom.Tile.Wall_tile
Wall
p1383
(dp1384
g4
I1
sg5
g6
sg7
I20
sg8
I23
sg9
I00
sg10
I0
sg11
I00
sg12
I01
sbaa(lp1385
(iRoom.Tile.Wall_tile
Wall
p1386
(dp1387
g4
I1
sg5
g6
sg7
I21
sg8
I0
sg9
I00
sg10
I0
sg11
I00
sg12
I01
sba(iRoom.Tile.Wall_tile
Wall
p1388
(dp1389
g4
I1
sg5
g6
sg7
I21
sg8
I1
sg9
I00
sg10
I0
sg11
I00
sg12
I01
sba(iRoom.Tile.Tile
Tile
p1390
(dp1391
g4
I1
sg5
(I234
I196
I174
tp1392
sg7
I21
sg8
I2
sg9
I00
sg10
I0
sg11
I01
sg12
I00
sba(iRoom.Tile.Tile
Tile
p1393
(dp1394
g4
I1
sg5
(I238
I202
I176
tp1395
sg7
I21
sg8
I3
sg9
I00
sg10
I0
sg11
I01
sg12
I00
sba(iRoom.Tile.Tile
Tile
p1396
(dp1397
g4
I1
sg5
(I236
I196
I172
tp1398
sg7
I21
sg8
I4
sg9
I00
sg10
I0
sg11
I01
sg12
I00
sba(iRoom.Tile.Tile
Tile
p1399
(dp1400
g4
I1
sg5
(I234
I196
I170
tp1401
sg7
I21
sg8
I5
sg9
I00
sg10
I0
sg11
I01
sg12
I00
sba(iRoom.Tile.Tile
Tile
p1402
(dp1403
g4
I1
sg5
(I241
I199
I173
tp1404
sg7
I21
sg8
I6
sg9
I00
sg10
I0
sg11
I01
sg12
I00
sba(iRoom.Tile.Tile
Tile
p1405
(dp1406
g4
I1
sg5
(I235
I198
I175
tp1407
sg7
I21
sg8
I7
sg9
I00
sg10
I0
sg11
I01
sg12
I00
sba(iRoom.Tile.Tile
Tile
p1408
(dp1409
g4
I1
sg5
(I232
I203
I171
tp1410
sg7
I21
sg8
I8
sg9
I00
sg10
I0
sg11
I01
sg12
I00
sba(iRoom.Tile.Tile
Tile
p1411
(dp1412
g4
I1
sg5
(I234
I198
I175
tp1413
sg7
I21
sg8
I9
sg9
I00
sg10
I0
sg11
I01
sg12
I00
sba(iRoom.Tile.Wall_tile
Wall
p1414
(dp1415
g4
I1
sg5
g6
sg7
I21
sg8
I10
sg9
I00
sg10
I0
sg11
I00
sg12
I01
sba(iRoom.Tile.Tile
Tile
p1416
(dp1417
g4
I1
sg5
(I237
I200
I175
tp1418
sg7
I21
sg8
I11
sg9
I00
sg10
I0
sg11
I01
sg12
I00
sba(iRoom.Tile.Tile
Tile
p1419
(dp1420
g4
I1
sg5
(I234
I196
I179
tp1421
sg7
I21
sg8
I12
sg9
I00
sg10
I0
sg11
I01
sg12
I00
sba(iRoom.Tile.Tile
Tile
p1422
(dp1423
g4
I1
sg5
(I236
I202
I176
tp1424
sg7
I21
sg8
I13
sg9
I00
sg10
I0
sg11
I01
sg12
I00
sba(iRoom.Tile.Tile
Tile
p1425
(dp1426
g4
I1
sg5
(I237
I205
I172
tp1427
sg7
I21
sg8
I14
sg9
I00
sg10
I0
sg11
I01
sg12
I00
sba(iRoom.Tile.Tile
Tile
p1428
(dp1429
g4
I1
sg5
(I236
I201
I177
tp1430
sg7
I21
sg8
I15
sg9
I00
sg10
I0
sg11
I01
sg12
I00
sba(iRoom.Tile.Wall_tile
Wall
p1431
(dp1432
g4
I1
sg5
g6
sg7
I21
sg8
I16
sg9
I00
sg10
I0
sg11
I00
sg12
I01
sba(iRoom.Tile.Tile
Tile
p1433
(dp1434
g4
I1
sg5
(I239
I196
I172
tp1435
sg7
I21
sg8
I17
sg9
I00
sg10
I0
sg11
I01
sg12
I00
sba(iRoom.Tile.Tile
Tile
p1436
(dp1437
g4
I1
sg5
(I236
I197
I177
tp1438
sg7
I21
sg8
I18
sg9
I00
sg10
I0
sg11
I01
sg12
I00
sba(iRoom.Tile.Tile
Tile
p1439
(dp1440
g4
I1
sg5
(I237
I200
I171
tp1441
sg7
I21
sg8
I19
sg9
I00
sg10
I0
sg11
I01
sg12
I00
sba(iRoom.Tile.Tile
Tile
p1442
(dp1443
g4
I1
sg5
(I232
I204
I175
tp1444
sg7
I21
sg8
I20
sg9
I00
sg10
I0
sg11
I01
sg12
I00
sba(iRoom.Tile.Tile
Tile
p1445
(dp1446
g4
I1
sg5
(I233
I204
I175
tp1447
sg7
I21
sg8
I21
sg9
I00
sg10
I0
sg11
I01
sg12
I00
sba(iRoom.Tile.Tile
Tile
p1448
(dp1449
g4
I1
sg5
(I233
I197
I173
tp1450
sg7
I21
sg8
I22
sg9
I00
sg10
I0
sg11
I01
sg12
I00
sba(iRoom.Tile.Wall_tile
Wall
p1451
(dp1452
g4
I1
sg5
g6
sg7
I21
sg8
I23
sg9
I00
sg10
I0
sg11
I00
sg12
I01
sbaa(lp1453
(iRoom.Tile.Wall_tile
Wall
p1454
(dp1455
g4
I1
sg5
g6
sg7
I22
sg8
I0
sg9
I00
sg10
I0
sg11
I00
sg12
I01
sba(iRoom.Tile.Tile
Tile
p1456
(dp1457
g4
I1
sg5
(I235
I202
I176
tp1458
sg7
I22
sg8
I1
sg9
I00
sg10
I0
sg11
I01
sg12
I00
sba(iRoom.Tile.Tile
Tile
p1459
(dp1460
g4
I1
sg5
(I238
I198
I172
tp1461
sg7
I22
sg8
I2
sg9
I00
sg10
I0
sg11
I01
sg12
I00
sba(iRoom.Tile.Tile
Tile
p1462
(dp1463
g4
I1
sg5
(I238
I197
I175
tp1464
sg7
I22
sg8
I3
sg9
I00
sg10
I0
sg11
I01
sg12
I00
sba(iRoom.Tile.Wall_tile
Wall
p1465
(dp1466
g4
I1
sg5
g6
sg7
I22
sg8
I4
sg9
I00
sg10
I0
sg11
I00
sg12
I01
sba(iRoom.Tile.Tile
Tile
p1467
(dp1468
g4
I1
sg5
(I237
I197
I173
tp1469
sg7
I22
sg8
I5
sg9
I00
sg10
I0
sg11
I01
sg12
I00
sba(iRoom.Tile.Tile
Tile
p1470
(dp1471
g4
I1
sg5
(I236
I199
I173
tp1472
sg7
I22
sg8
I6
sg9
I00
sg10
I0
sg11
I01
sg12
I00
sba(iRoom.Tile.Tile
Tile
p1473
(dp1474
g4
I1
sg5
(I234
I201
I171
tp1475
sg7
I22
sg8
I7
sg9
I00
sg10
I0
sg11
I01
sg12
I00
sba(iRoom.Tile.Wall_tile
Wall
p1476
(dp1477
g4
I1
sg5
g6
sg7
I22
sg8
I8
sg9
I00
sg10
I0
sg11
I00
sg12
I01
sba(iRoom.Tile.Tile
Tile
p1478
(dp1479
g4
I1
sg5
(I239
I197
I178
tp1480
sg7
I22
sg8
I9
sg9
I00
sg10
I0
sg11
I01
sg12
I00
sba(iRoom.Tile.Tile
Tile
p1481
(dp1482
g4
I1
sg5
(I239
I202
I175
tp1483
sg7
I22
sg8
I10
sg9
I00
sg10
I0
sg11
I01
sg12
I00
sba(iRoom.Tile.Tile
Tile
p1484
(dp1485
g4
I1
sg5
(I233
I203
I176
tp1486
sg7
I22
sg8
I11
sg9
I00
sg10
I0
sg11
I01
sg12
I00
sba(iRoom.Tile.Tile
Tile
p1487
(dp1488
g4
I1
sg5
(I236
I199
I174
tp1489
sg7
I22
sg8
I12
sg9
I00
sg10
I0
sg11
I01
sg12
I00
sba(iRoom.Tile.Wall_tile
Wall
p1490
(dp1491
g4
I1
sg5
g6
sg7
I22
sg8
I13
sg9
I00
sg10
I0
sg11
I00
sg12
I01
sba(iRoom.Tile.Tile
Tile
p1492
(dp1493
g4
I1
sg5
(I236
I200
I179
tp1494
sg7
I22
sg8
I14
sg9
I00
sg10
I0
sg11
I01
sg12
I00
sba(iRoom.Tile.Tile
Tile
p1495
(dp1496
g4
I1
sg5
(I233
I201
I173
tp1497
sg7
I22
sg8
I15
sg9
I00
sg10
I0
sg11
I01
sg12
I00
sba(iRoom.Tile.Tile
Tile
p1498
(dp1499
g4
I1
sg5
(I240
I204
I176
tp1500
sg7
I22
sg8
I16
sg9
I00
sg10
I0
sg11
I01
sg12
I00
sba(iRoom.Tile.Tile
Tile
p1501
(dp1502
g4
I1
sg5
(I240
I201
I173
tp1503
sg7
I22
sg8
I17
sg9
I00
sg10
I0
sg11
I01
sg12
I00
sba(iRoom.Tile.Tile
Tile
p1504
(dp1505
g4
I1
sg5
(I233
I202
I174
tp1506
sg7
I22
sg8
I18
sg9
I00
sg10
I0
sg11
I01
sg12
I00
sba(iRoom.Tile.Tile
Tile
p1507
(dp1508
g4
I1
sg5
(I234
I196
I179
tp1509
sg7
I22
sg8
I19
sg9
I00
sg10
I0
sg11
I01
sg12
I00
sba(iRoom.Tile.Wall_tile
Wall
p1510
(dp1511
g4
I1
sg5
g6
sg7
I22
sg8
I20
sg9
I00
sg10
I0
sg11
I00
sg12
I01
sba(iRoom.Tile.Tile
Tile
p1512
(dp1513
g4
I1
sg5
(I234
I204
I172
tp1514
sg7
I22
sg8
I21
sg9
I00
sg10
I0
sg11
I01
sg12
I00
sba(iRoom.Tile.Tile
Tile
p1515
(dp1516
g4
I1
sg5
(I237
I200
I170
tp1517
sg7
I22
sg8
I22
sg9
I00
sg10
I0
sg11
I01
sg12
I00
sba(iRoom.Tile.Wall_tile
Wall
p1518
(dp1519
g4
I1
sg5
g6
sg7
I22
sg8
I23
sg9
I00
sg10
I0
sg11
I00
sg12
I01
sbaa(lp1520
(iRoom.Tile.Wall_tile
Wall
p1521
(dp1522
g4
I1
sg5
g6
sg7
I23
sg8
I0
sg9
I00
sg10
I0
sg11
I00
sg12
I01
sba(iRoom.Tile.Wall_tile
Wall
p1523
(dp1524
g4
I1
sg5
g6
sg7
I23
sg8
I1
sg9
I00
sg10
I0
sg11
I00
sg12
I01
sba(iRoom.Tile.Wall_tile
Wall
p1525
(dp1526
g4
I1
sg5
g6
sg7
I23
sg8
I2
sg9
I00
sg10
I0
sg11
I00
sg12
I01
sba(iRoom.Tile.Wall_tile
Wall
p1527
(dp1528
g4
I1
sg5
g6
sg7
I23
sg8
I3
sg9
I00
sg10
I0
sg11
I00
sg12
I01
sba(iRoom.Tile.Wall_tile
Wall
p1529
(dp1530
g4
I1
sg5
g6
sg7
I23
sg8
I4
sg9
I00
sg10
I0
sg11
I00
sg12
I01
sba(iRoom.Tile.Wall_tile
Wall
p1531
(dp1532
g4
I1
sg5
g6
sg7
I23
sg8
I5
sg9
I00
sg10
I0
sg11
I00
sg12
I01
sba(iRoom.Tile.Wall_tile
Wall
p1533
(dp1534
g4
I1
sg5
g6
sg7
I23
sg8
I6
sg9
I00
sg10
I0
sg11
I00
sg12
I01
sba(iRoom.Tile.Wall_tile
Wall
p1535
(dp1536
g4
I1
sg5
g6
sg7
I23
sg8
I7
sg9
I00
sg10
I0
sg11
I00
sg12
I01
sba(iRoom.Tile.Wall_tile
Wall
p1537
(dp1538
g4
I1
sg5
g6
sg7
I23
sg8
I8
sg9
I00
sg10
I0
sg11
I00
sg12
I01
sba(iRoom.Tile.Wall_tile
Wall
p1539
(dp1540
g4
I1
sg5
g6
sg7
I23
sg8
I9
sg9
I00
sg10
I0
sg11
I00
sg12
I01
sba(iRoom.Tile.Wall_tile
Wall
p1541
(dp1542
g4
I1
sg5
g6
sg7
I23
sg8
I10
sg9
I00
sg10
I0
sg11
I00
sg12
I01
sba(iRoom.Tile.Wall_tile
Wall
p1543
(dp1544
g4
I1
sg5
g6
sg7
I23
sg8
I11
sg9
I00
sg10
I0
sg11
I00
sg12
I01
sba(iRoom.Tile.Wall_tile
Wall
p1545
(dp1546
g4
I1
sg5
g6
sg7
I23
sg8
I12
sg9
I00
sg10
I0
sg11
I00
sg12
I01
sba(iRoom.Tile.Wall_tile
Wall
p1547
(dp1548
g4
I1
sg5
g6
sg7
I23
sg8
I13
sg9
I00
sg10
I0
sg11
I00
sg12
I01
sba(iRoom.Tile.Wall_tile
Wall
p1549
(dp1550
g4
I1
sg5
g6
sg7
I23
sg8
I14
sg9
I00
sg10
I0
sg11
I00
sg12
I01
sba(iRoom.Tile.Wall_tile
Wall
p1551
(dp1552
g4
I1
sg5
g6
sg7
I23
sg8
I15
sg9
I00
sg10
I0
sg11
I00
sg12
I01
sba(iRoom.Tile.Wall_tile
Wall
p1553
(dp1554
g4
I1
sg5
g6
sg7
I23
sg8
I16
sg9
I00
sg10
I0
sg11
I00
sg12
I01
sba(iRoom.Tile.Wall_tile
Wall
p1555
(dp1556
g4
I1
sg5
g6
sg7
I23
sg8
I17
sg9
I00
sg10
I0
sg11
I00
sg12
I01
sba(iRoom.Tile.Wall_tile
Wall
p1557
(dp1558
g4
I1
sg5
g6
sg7
I23
sg8
I18
sg9
I00
sg10
I0
sg11
I00
sg12
I01
sba(iRoom.Tile.Wall_tile
Wall
p1559
(dp1560
g4
I1
sg5
g6
sg7
I23
sg8
I19
sg9
I00
sg10
I0
sg11
I00
sg12
I01
sba(iRoom.Tile.Wall_tile
Wall
p1561
(dp1562
g4
I1
sg5
g6
sg7
I23
sg8
I20
sg9
I00
sg10
I0
sg11
I00
sg12
I01
sba(iRoom.Tile.Wall_tile
Wall
p1563
(dp1564
g4
I1
sg5
g6
sg7
I23
sg8
I21
sg9
I00
sg10
I0
sg11
I00
sg12
I01
sba(iRoom.Tile.Wall_tile
Wall
p1565
(dp1566
g4
I1
sg5
g6
sg7
I23
sg8
I22
sg9
I00
sg10
I0
sg11
I00
sg12
I01
sba(iRoom.Tile.Wall_tile
Wall
p1567
(dp1568
g4
I1
sg5
g6
sg7
I23
sg8
I23
sg9
I00
sg10
I0
sg11
I00
sg12
I01
sbaa.